

Microchip MPLAB XC8 Assembler V2.46 build 20240104201356 
                                                                                               Thu May 16 12:03:41 2024

Microchip MPLAB XC8 C Compiler v2.46 (Free license) build 20240104201356 Og1 
     1                           	processor	18F4580
     2                           	fnconf	rparam,??,?,0
     3                           	pagewidth 120
     4                           	opt	flic
     5                           	psect	idataCOMRAM,global,class=CODE,delta=1,noexec
     6                           	psect	idataBANK0,global,class=CODE,delta=1,noexec
     7                           	psect	mediumconst,global,reloc=2,class=MEDIUMCONST,delta=1,noexec
     8                           	psect	cinit,global,reloc=2,class=CODE,delta=1
     9                           	psect	bssCOMRAM,global,class=COMRAM,space=1,delta=1,lowdata,noexec
    10                           	psect	dataCOMRAM,global,class=COMRAM,space=1,delta=1,lowdata,noexec
    11                           	psect	bssBANK0,global,class=BANK0,space=1,delta=1,lowdata,noexec
    12                           	psect	dataBANK0,global,class=BANK0,space=1,delta=1,lowdata,noexec
    13                           	psect	bssBANK1,global,class=BANK1,space=1,delta=1,lowdata,noexec
    14                           	psect	cstackBANK1,global,class=BANK1,space=1,delta=1,lowdata,noexec
    15                           	psect	cstackCOMRAM,global,class=COMRAM,space=1,delta=1,lowdata,noexec
    16                           	psect	text0,global,reloc=2,class=CODE,delta=1
    17                           	psect	text1,global,reloc=2,class=CODE,delta=1
    18                           	psect	text2,global,reloc=2,class=CODE,delta=1
    19                           	psect	text3,global,reloc=2,class=CODE,delta=1
    20                           	psect	text4,global,reloc=2,class=CODE,delta=1
    21                           	psect	text5,global,reloc=2,class=CODE,delta=1
    22                           	psect	text6,global,reloc=2,class=CODE,delta=1
    23                           	psect	text7,global,reloc=2,class=CODE,delta=1
    24                           	psect	text8,global,reloc=2,class=CODE,delta=1
    25                           	psect	text9,global,reloc=2,class=CODE,delta=1
    26                           	psect	text10,global,reloc=2,class=CODE,delta=1
    27                           	psect	text11,global,reloc=2,class=CODE,delta=1
    28                           	psect	text12,global,reloc=2,class=CODE,delta=1
    29                           	psect	text13,global,reloc=2,class=CODE,delta=1
    30                           	psect	text14,global,reloc=2,class=CODE,delta=1
    31                           	psect	text15,global,reloc=2,class=CODE,delta=1
    32                           	psect	text16,global,reloc=2,class=CODE,delta=1
    33                           	psect	text17,global,reloc=2,class=CODE,delta=1
    34                           	psect	text18,global,reloc=2,class=CODE,delta=1
    35                           	psect	text19,global,reloc=2,class=CODE,delta=1
    36                           	psect	text20,global,reloc=2,class=CODE,delta=1
    37                           	psect	text21,global,reloc=2,class=CODE,delta=1
    38                           	psect	text22,global,reloc=2,class=CODE,delta=1,group=1
    39                           	psect	text23,global,reloc=2,class=CODE,delta=1
    40                           	psect	text24,global,reloc=2,class=CODE,delta=1
    41                           	psect	text25,global,reloc=2,class=CODE,delta=1,group=1
    42                           	psect	text26,global,reloc=2,class=CODE,delta=1,group=1
    43                           	psect	text27,global,reloc=2,class=CODE,delta=1
    44                           	psect	text28,global,reloc=2,class=CODE,delta=1
    45                           	psect	text29,global,reloc=2,class=CODE,delta=1
    46                           	psect	text30,global,reloc=2,class=CODE,delta=1
    47                           	psect	text31,global,reloc=2,class=CODE,delta=1
    48                           	psect	text32,global,reloc=2,class=CODE,delta=1
    49                           	psect	text33,global,reloc=2,class=CODE,delta=1
    50                           	psect	text34,global,reloc=2,class=CODE,delta=1,group=1
    51                           	psect	text35,global,reloc=2,class=CODE,delta=1,group=1
    52                           	psect	text36,global,reloc=2,class=CODE,delta=1
    53                           	psect	text37,global,reloc=2,class=CODE,delta=1
    54                           	psect	text38,global,reloc=2,class=CODE,delta=1
    55                           	psect	text39,global,reloc=2,class=CODE,delta=1
    56                           	psect	text40,global,reloc=2,class=CODE,delta=1
    57                           	psect	text41,global,reloc=2,class=CODE,delta=1
    58                           	psect	text42,global,reloc=2,class=CODE,delta=1
    59                           	psect	text43,global,reloc=2,class=CODE,delta=1,group=2
    60                           	psect	text44,global,reloc=2,class=CODE,delta=1,group=2
    61                           	psect	text45,global,reloc=2,class=CODE,delta=1
    62                           	psect	text46,global,reloc=2,class=CODE,delta=1
    63                           	psect	text47,global,reloc=2,class=CODE,delta=1
    64                           	psect	intcode,global,reloc=2,class=CODE,delta=1
    65                           	psect	intcode_body,global,reloc=2,class=CODE,delta=1
    66                           	psect	intsave_regs,global,class=BIGRAM,space=1,delta=1,noexec
    67                           	psect	rparam,global,class=COMRAM,space=1,delta=1,noexec
    68                           	psect	temp,global,ovrld,common,class=COMRAM,space=1,delta=1,lowdata
    69                           	psect	idloc,global,abs,ovrld,class=IDLOC,space=5,delta=1,noexec
    70                           	psect	config,global,abs,ovrld,class=CONFIG,space=4,delta=1,noexec
    71   000000                     
    72                           ; Version 2.20
    73                           ; Generated 12/02/2020 GMT
    74                           ; 
    75                           ; Copyright © 2020, Microchip Technology Inc. and its subsidiaries ("Microchip")
    76                           ; All rights reserved.
    77                           ; 
    78                           ; This software is developed by Microchip Technology Inc. and its subsidiaries ("Microch
      +                          ip").
    79                           ; 
    80                           ; Redistribution and use in source and binary forms, with or without modification, are
    81                           ; permitted provided that the following conditions are met:
    82                           ; 
    83                           ;     1. Redistributions of source code must retain the above copyright notice, this lis
      +                          t of
    84                           ;        conditions and the following disclaimer.
    85                           ; 
    86                           ;     2. Redistributions in binary form must reproduce the above copyright notice, this 
      +                          list
    87                           ;        of conditions and the following disclaimer in the documentation and/or other
    88                           ;        materials provided with the distribution.
    89                           ; 
    90                           ;     3. Microchip's name may not be used to endorse or promote products derived from th
      +                          is
    91                           ;        software without specific prior written permission.
    92                           ; 
    93                           ; THIS SOFTWARE IS PROVIDED BY MICROCHIP "AS IS" AND ANY EXPRESS OR IMPLIED WARRANTIES,
    94                           ; INCLUDING, BUT NOT LIMITED TO, THE IMPLIED WARRANTIES OF MERCHANTABILITY AND FITNESS F
      +                          OR
    95                           ; PURPOSE ARE DISCLAIMED.  IN NO EVENT SHALL MICROCHIP BE LIABLE FOR ANY DIRECT, INDIREC
      +                          T,
    96                           ; INCIDENTAL, SPECIAL, EXEMPLARY, OR CONSEQUENTIAL DAMAGES (INCLUDING BUT NOT LIMITED TO
    97                           ; PROCUREMENT OF SUBSTITUTE GOODS OR SERVICES; LOSS OF USE, DATA OR PROFITS; OR BUSINESS
    98                           ; INTERRUPTION) HOWSOEVER CAUSED AND ON ANY THEORY OF LIABILITY, WHETHER IN CONTRACT, ST
      +                          RICT
    99                           ; LIABILITY, OR TORT (INCLUDING NEGLIGENCE OR OTHERWISE) ARISING IN ANY WAY OUT OF THE U
      +                          SE OF
   100                           ; THIS SOFTWARE, EVEN IF ADVISED OF THE POSSIBILITY OF SUCH DAMAGE.
   101                           ; 
   102                           ; 
   103                           ; Code-generator required, PIC18F4580 Definitions
   104                           ; 
   105                           ; SFR Addresses
   106   000000                     
   107                           	psect	idataCOMRAM
   108   002846                     __pidataCOMRAM:
   109                           	callstack 0
   110                           
   111                           ;initializer for login_screen@attempt
   112   002846  0001               	dw	1
   113                           
   114                           ;initializer for _at_fail
   115   002848  0078               	dw	120
   116                           
   117                           ;initializer for _event_count
   118   00284A  0001               	dw	1
   119                           
   120                           ;initializer for _once
   121   00284C  01                 	db	1
   122                           
   123                           	psect	idataBANK0
   124   002564                     __pidataBANK0:
   125                           	callstack 0
   126                           
   127                           ;initializer for _event
   128   002564  F6                 	db	low STR_1
   129   002565  2F                 	db	high STR_1
   130   002566  F3                 	db	low STR_2
   131   002567  2F                 	db	high STR_2
   132   002568  FC                 	db	low STR_3
   133   002569  2F                 	db	high STR_3
   134   00256A  E4                 	db	low STR_4
   135   00256B  2F                 	db	high STR_4
   136   00256C  E7                 	db	low STR_5
   137   00256D  2F                 	db	high STR_5
   138   00256E  EA                 	db	low STR_6
   139   00256F  2F                 	db	high STR_6
   140   002570  ED                 	db	low STR_7
   141   002571  2F                 	db	high STR_7
   142   002572  F0                 	db	low STR_8
   143   002573  2F                 	db	high STR_8
   144   002574  F9                 	db	low STR_9
   145   002575  2F                 	db	high STR_9
   146                           
   147                           ;initializer for _menu
   148   002576  D3                 	db	low STR_10
   149   002577  2F                 	db	high STR_10
   150   002578  CA                 	db	low STR_11
   151   002579  2F                 	db	high STR_11
   152   00257A  7F                 	db	low STR_12
   153   00257B  2F                 	db	high STR_12
   154   00257C  B7                 	db	low STR_13
   155   00257D  2F                 	db	high STR_13
   156   00257E  1C                 	db	low STR_14
   157   00257F  2F                 	db	high STR_14
   158                           
   159                           ;initializer for view_log@flag
   160   002580  0001               	dw	1
   161                           
   162                           ;initializer for dash_board@f
   163   002582  0001               	dw	1
   164                           
   165                           ;initializer for _E_P_T
   166   002584  0004               	dw	4
   167                           
   168                           ;initializer for _dashboard
   169   002586  54                 	db	84
   170   002587  49                 	db	73
   171   002588  4D                 	db	77
   172   002589  45                 	db	69
   173   00258A  20                 	db	32
   174   00258B  20                 	db	32
   175   00258C  20                 	db	32
   176   00258D  20                 	db	32
   177   00258E  20                 	db	32
   178   00258F  20                 	db	32
   179   002590  45                 	db	69
   180   002591  56                 	db	86
   181   002592  20                 	db	32
   182   002593  53                 	db	83
   183   002594  50                 	db	80
   184   002595  00                 	db	0
   185                           
   186                           ;initializer for _time
   187   002596  30                 	db	48
   188   002597  30                 	db	48
   189   002598  3A                 	db	58
   190   002599  30                 	db	48
   191   00259A  30                 	db	48
   192   00259B  3A                 	db	58
   193   00259C  30                 	db	48
   194   00259D  30                 	db	48
   195   00259E  00                 	db	0
   196                           
   197                           ;initializer for _orig_pass
   198   00259F  30                 	db	48
   199   0025A0  30                 	db	48
   200   0025A1  30                 	db	48
   201   0025A2  30                 	db	48
   202   0025A3  00                 	db	0
   203                           
   204                           ;initializer for _usr_pass
   205   0025A4  30                 	db	48
   206   0025A5  30                 	db	48
   207   0025A6  30                 	db	48
   208   0025A7  30                 	db	48
   209   0025A8  00                 	db	0
   210   000000                     _TMR0	set	4054
   211   000000                     _SSPADD	set	4040
   212   000000                     _SSPCON1	set	4038
   213   000000                     _ADRESL	set	4035
   214   000000                     _ADRESH	set	4036
   215   000000                     _ACKSTAT	set	32302
   216   000000                     _CKE	set	32318
   217   000000                     _TMR0ON	set	32431
   218   000000                     _RBPU	set	32655
   219   000000                     _ADCON0	set	4034
   220   000000                     _TRISD	set	3989
   221   000000                     _TXIF	set	31988
   222   000000                     _CREN	set	32092
   223   000000                     _TRISC6	set	31910
   224   000000                     _TRISC7	set	31911
   225   000000                     _ACKEN	set	32300
   226   000000                     _ACKDT	set	32301
   227   000000                     _RCEN	set	32299
   228   000000                     _RSEN	set	32297
   229   000000                     _PEN	set	32298
   230   000000                     _SEN	set	32296
   231   000000                     _SMP	set	32319
   232   000000                     _TRISC4	set	31908
   233   000000                     _TRISC3	set	31907
   234   000000                     _PSA	set	32427
   235   000000                     _T0CS	set	32429
   236   000000                     _T08BIT	set	32430
   237   000000                     _TMR0IF	set	32658
   238   000000                     _TMR0IE	set	32661
   239   000000                     _RB4	set	31756
   240   000000                     _RB3	set	31755
   241   000000                     _RB2	set	31754
   242   000000                     _RB1	set	31753
   243   000000                     _RB7	set	31759
   244   000000                     _RB6	set	31758
   245   000000                     _GO	set	32273
   246   000000                     _ACQT0	set	32259
   247   000000                     _ACQT1	set	32260
   248   000000                     _ACQT2	set	32261
   249   000000                     _ADFM	set	32263
   250   000000                     _ADCS0	set	32256
   251   000000                     _ADCS1	set	32257
   252   000000                     _PCFG0	set	32264
   253   000000                     _PCFG1	set	32265
   254   000000                     _PCFG2	set	32266
   255   000000                     _PCFG3	set	32267
   256   000000                     _VCFG0	set	32268
   257   000000                     _RD7	set	31775
   258   000000                     _RC0	set	31760
   259   000000                     _RC2	set	31762
   260   000000                     _PEIE	set	32662
   261   000000                     _RB5	set	31757
   262   000000                     _RC1	set	31761
   263   000000                     _GIE	set	32663
   264   000000                     _TRISB	set	3987
   265   000000                     _TRISC	set	3988
   266   000000                     _PORTD	set	3971
   267   000000                     _TRISD7	set	31919
   268   000000                     _RCIE	set	31981
   269   000000                     _SSPIF	set	31987
   270   000000                     _ADCS2	set	32258
   271   000000                     _VCFG1	set	32269
   272   000000                     _ADON	set	32272
   273   000000                     _SSPBUF	set	4041
   274   000000                     _BCLIF	set	32011
   275   000000                     _SPEN	set	32095
   276   000000                     _BRGH	set	32098
   277   000000                     _TXREG	set	4013
   278   000000                     _SPBRG	set	4015
   279                           
   280                           	psect	mediumconst
   281   002EC4                     __pmediumconst:
   282                           	callstack 0
   283   002EC4  00                 	db	0
   284   002EC5                     STR_44:
   285   002EC5  23                 	db	35
   286   002EC6  20                 	db	32
   287   002EC7  54                 	db	84	;'T'
   288   002EC8  49                 	db	73	;'I'
   289   002EC9  4D                 	db	77	;'M'
   290   002ECA  45                 	db	69	;'E'
   291   002ECB  20                 	db	32
   292   002ECC  20                 	db	32
   293   002ECD  20                 	db	32
   294   002ECE  20                 	db	32
   295   002ECF  20                 	db	32
   296   002ED0  45                 	db	69	;'E'
   297   002ED1  56                 	db	86	;'V'
   298   002ED2  20                 	db	32
   299   002ED3  53                 	db	83	;'S'
   300   002ED4  50                 	db	80	;'P'
   301   002ED5  0A                 	db	10
   302   002ED6  0D                 	db	13
   303   002ED7  00                 	db	0
   304   002ED8                     STR_41:
   305   002ED8  23                 	db	35
   306   002ED9  20                 	db	32
   307   002EDA  54                 	db	84	;'T'
   308   002EDB  49                 	db	73	;'I'
   309   002EDC  4D                 	db	77	;'M'
   310   002EDD  45                 	db	69	;'E'
   311   002EDE  20                 	db	32
   312   002EDF  20                 	db	32
   313   002EE0  20                 	db	32
   314   002EE1  20                 	db	32
   315   002EE2  20                 	db	32
   316   002EE3  45                 	db	69	;'E'
   317   002EE4  56                 	db	86	;'V'
   318   002EE5  20                 	db	32
   319   002EE6  53                 	db	83	;'S'
   320   002EE7  50                 	db	80	;'P'
   321   002EE8  00                 	db	0
   322   002EE9                     STR_29:
   323   002EE9  5F                 	db	95	;'_'
   324   002EEA  45                 	db	69	;'E'
   325   002EEB  6E                 	db	110	;'n'
   326   002EEC  74                 	db	116	;'t'
   327   002EED  65                 	db	101	;'e'
   328   002EEE  72                 	db	114	;'r'
   329   002EEF  20                 	db	32
   330   002EF0  70                 	db	112	;'p'
   331   002EF1  61                 	db	97	;'a'
   332   002EF2  73                 	db	115	;'s'
   333   002EF3  73                 	db	115	;'s'
   334   002EF4  77                 	db	119	;'w'
   335   002EF5  6F                 	db	111	;'o'
   336   002EF6  72                 	db	114	;'r'
   337   002EF7  64                 	db	100	;'d'
   338   002EF8  5F                 	db	95	;'_'
   339   002EF9  00                 	db	0
   340   002EFA                     STR_38:
   341   002EFA  70                 	db	112	;'p'
   342   002EFB  61                 	db	97	;'a'
   343   002EFC  73                 	db	115	;'s'
   344   002EFD  73                 	db	115	;'s'
   345   002EFE  77                 	db	119	;'w'
   346   002EFF  6F                 	db	111	;'o'
   347   002F00  72                 	db	114	;'r'
   348   002F01  64                 	db	100	;'d'
   349   002F02  5F                 	db	95	;'_'
   350   002F03  75                 	db	117	;'u'
   351   002F04  70                 	db	112	;'p'
   352   002F05  64                 	db	100	;'d'
   353   002F06  61                 	db	97	;'a'
   354   002F07  74                 	db	116	;'t'
   355   002F08  65                 	db	101	;'e'
   356   002F09  64                 	db	100	;'d'
   357   002F0A  00                 	db	0
   358   002F0B                     STR_37:
   359   002F0B  63                 	db	99	;'c'
   360   002F0C  6F                 	db	111	;'o'
   361   002F0D  6E                 	db	110	;'n'
   362   002F0E  66                 	db	102	;'f'
   363   002F0F  69                 	db	105	;'i'
   364   002F10  72                 	db	114	;'r'
   365   002F11  6D                 	db	109	;'m'
   366   002F12  20                 	db	32
   367   002F13  70                 	db	112	;'p'
   368   002F14  61                 	db	97	;'a'
   369   002F15  73                 	db	115	;'s'
   370   002F16  73                 	db	115	;'s'
   371   002F17  77                 	db	119	;'w'
   372   002F18  6F                 	db	111	;'o'
   373   002F19  72                 	db	114	;'r'
   374   002F1A  64                 	db	100	;'d'
   375   002F1B  00                 	db	0
   376   002F1C                     STR_14:
   377   002F1C  43                 	db	67	;'C'
   378   002F1D  68                 	db	104	;'h'
   379   002F1E  61                 	db	97	;'a'
   380   002F1F  6E                 	db	110	;'n'
   381   002F20  67                 	db	103	;'g'
   382   002F21  65                 	db	101	;'e'
   383   002F22  20                 	db	32
   384   002F23  50                 	db	80	;'P'
   385   002F24  61                 	db	97	;'a'
   386   002F25  73                 	db	115	;'s'
   387   002F26  73                 	db	115	;'s'
   388   002F27  77                 	db	119	;'w'
   389   002F28  6F                 	db	111	;'o'
   390   002F29  72                 	db	114	;'r'
   391   002F2A  64                 	db	100	;'d'
   392   002F2B  00                 	db	0
   393   002F2C                     STR_43:
   394   002F2C  64                 	db	100	;'d'
   395   002F2D  6F                 	db	111	;'o'
   396   002F2E  77                 	db	119	;'w'
   397   002F2F  6E                 	db	110	;'n'
   398   002F30  6C                 	db	108	;'l'
   399   002F31  6F                 	db	111	;'o'
   400   002F32  64                 	db	100	;'d'
   401   002F33  69                 	db	105	;'i'
   402   002F34  6E                 	db	110	;'n'
   403   002F35  67                 	db	103	;'g'
   404   002F36  20                 	db	32
   405   002F37  2E                 	db	46
   406   002F38  2E                 	db	46
   407   002F39  2E                 	db	46
   408   002F3A  00                 	db	0
   409   002F3B                     STR_31:
   410   002F3B  77                 	db	119	;'w'
   411   002F3C  72                 	db	114	;'r'
   412   002F3D  6F                 	db	111	;'o'
   413   002F3E  6E                 	db	110	;'n'
   414   002F3F  67                 	db	103	;'g'
   415   002F40  20                 	db	32
   416   002F41  70                 	db	112	;'p'
   417   002F42  61                 	db	97	;'a'
   418   002F43  73                 	db	115	;'s'
   419   002F44  73                 	db	115	;'s'
   420   002F45  77                 	db	119	;'w'
   421   002F46  6F                 	db	111	;'o'
   422   002F47  72                 	db	114	;'r'
   423   002F48  64                 	db	100	;'d'
   424   002F49  00                 	db	0
   425   002F4A                     STR_39:
   426   002F4A  70                 	db	112	;'p'
   427   002F4B  61                 	db	97	;'a'
   428   002F4C  73                 	db	115	;'s'
   429   002F4D  73                 	db	115	;'s'
   430   002F4E  5F                 	db	95	;'_'
   431   002F4F  6D                 	db	109	;'m'
   432   002F50  69                 	db	105	;'i'
   433   002F51  73                 	db	115	;'s'
   434   002F52  6D                 	db	109	;'m'
   435   002F53  61                 	db	97	;'a'
   436   002F54  74                 	db	116	;'t'
   437   002F55  63                 	db	99	;'c'
   438   002F56  68                 	db	104	;'h'
   439   002F57  00                 	db	0
   440   002F58                     STR_32:
   441   002F58  41                 	db	65	;'A'
   442   002F59  54                 	db	84	;'T'
   443   002F5A  54                 	db	84	;'T'
   444   002F5B  45                 	db	69	;'E'
   445   002F5C  4D                 	db	77	;'M'
   446   002F5D  50                 	db	80	;'P'
   447   002F5E  54                 	db	84	;'T'
   448   002F5F  20                 	db	32
   449   002F60  4C                 	db	76	;'L'
   450   002F61  45                 	db	69	;'E'
   451   002F62  46                 	db	70	;'F'
   452   002F63  54                 	db	84	;'T'
   453   002F64  00                 	db	0
   454   002F65                     STR_36:
   455   002F65  6E                 	db	110	;'n'
   456   002F66  65                 	db	101	;'e'
   457   002F67  77                 	db	119	;'w'
   458   002F68  20                 	db	32
   459   002F69  70                 	db	112	;'p'
   460   002F6A  61                 	db	97	;'a'
   461   002F6B  73                 	db	115	;'s'
   462   002F6C  73                 	db	115	;'s'
   463   002F6D  77                 	db	119	;'w'
   464   002F6E  6F                 	db	111	;'o'
   465   002F6F  72                 	db	114	;'r'
   466   002F70  64                 	db	100	;'d'
   467   002F71  00                 	db	0
   468   002F72                     STR_48:
   469   002F72  53                 	db	83	;'S'
   470   002F73  75                 	db	117	;'u'
   471   002F74  63                 	db	99	;'c'
   472   002F75  63                 	db	99	;'c'
   473   002F76  65                 	db	101	;'e'
   474   002F77  73                 	db	115	;'s'
   475   002F78  73                 	db	115	;'s'
   476   002F79  66                 	db	102	;'f'
   477   002F7A  75                 	db	117	;'u'
   478   002F7B  6C                 	db	108	;'l'
   479   002F7C  6C                 	db	108	;'l'
   480   002F7D  79                 	db	121	;'y'
   481   002F7E  00                 	db	0
   482   002F7F                     STR_12:
   483   002F7F  44                 	db	68	;'D'
   484   002F80  6F                 	db	111	;'o'
   485   002F81  77                 	db	119	;'w'
   486   002F82  6E                 	db	110	;'n'
   487   002F83  6C                 	db	108	;'l'
   488   002F84  6F                 	db	111	;'o'
   489   002F85  61                 	db	97	;'a'
   490   002F86  64                 	db	100	;'d'
   491   002F87  20                 	db	32
   492   002F88  4C                 	db	76	;'L'
   493   002F89  6F                 	db	111	;'o'
   494   002F8A  67                 	db	103	;'g'
   495   002F8B  00                 	db	0
   496   002F8C                     STR_33:
   497   002F8C  57                 	db	87	;'W'
   498   002F8D  61                 	db	97	;'a'
   499   002F8E  69                 	db	105	;'i'
   500   002F8F  74                 	db	116	;'t'
   501   002F90  20                 	db	32
   502   002F91  2E                 	db	46
   503   002F92  2E                 	db	46
   504   002F93  2E                 	db	46
   505   002F94  46                 	db	70	;'F'
   506   002F95  6F                 	db	111	;'o'
   507   002F96  72                 	db	114	;'r'
   508   002F97  00                 	db	0
   509   002F98                     STR_35:
   510   002F98  65                 	db	101	;'e'
   511   002F99  6E                 	db	110	;'n'
   512   002F9A  74                 	db	116	;'t'
   513   002F9B  65                 	db	101	;'e'
   514   002F9C  72                 	db	114	;'r'
   515   002F9D  65                 	db	101	;'e'
   516   002F9E  64                 	db	100	;'d'
   517   002F9F  20                 	db	32
   518   002FA0  69                 	db	105	;'i'
   519   002FA1  6E                 	db	110	;'n'
   520   002FA2  00                 	db	0
   521   002FA3                     STR_42:
   522   002FA3  45                 	db	69	;'E'
   523   002FA4  6D                 	db	109	;'m'
   524   002FA5  70                 	db	112	;'p'
   525   002FA6  74                 	db	116	;'t'
   526   002FA7  79                 	db	121	;'y'
   527   002FA8  20                 	db	32
   528   002FA9  4C                 	db	76	;'L'
   529   002FAA  6F                 	db	111	;'o'
   530   002FAB  67                 	db	103	;'g'
   531   002FAC  00                 	db	0
   532   002FAD                     STR_30:
   533   002FAD  4D                 	db	77	;'M'
   534   002FAE  61                 	db	97	;'a'
   535   002FAF  69                 	db	105	;'i'
   536   002FB0  6E                 	db	110	;'n'
   537   002FB1  20                 	db	32
   538   002FB2  4D                 	db	77	;'M'
   539   002FB3  65                 	db	101	;'e'
   540   002FB4  6E                 	db	110	;'n'
   541   002FB5  75                 	db	117	;'u'
   542   002FB6  00                 	db	0
   543   002FB7                     STR_13:
   544   002FB7  43                 	db	67	;'C'
   545   002FB8  6C                 	db	108	;'l'
   546   002FB9  65                 	db	101	;'e'
   547   002FBA  61                 	db	97	;'a'
   548   002FBB  72                 	db	114	;'r'
   549   002FBC  20                 	db	32
   550   002FBD  4C                 	db	76	;'L'
   551   002FBE  6F                 	db	111	;'o'
   552   002FBF  67                 	db	103	;'g'
   553   002FC0  00                 	db	0
   554   002FC1                     STR_40:
   555   002FC1  48                 	db	72	;'H'
   556   002FC2  48                 	db	72	;'H'
   557   002FC3  3A                 	db	58	;':'
   558   002FC4  4D                 	db	77	;'M'
   559   002FC5  4D                 	db	77	;'M'
   560   002FC6  3A                 	db	58	;':'
   561   002FC7  53                 	db	83	;'S'
   562   002FC8  53                 	db	83	;'S'
   563   002FC9  00                 	db	0
   564   002FCA                     STR_11:
   565   002FCA  53                 	db	83	;'S'
   566   002FCB  65                 	db	101	;'e'
   567   002FCC  74                 	db	116	;'t'
   568   002FCD  20                 	db	32
   569   002FCE  54                 	db	84	;'T'
   570   002FCF  69                 	db	105	;'i'
   571   002FD0  6D                 	db	109	;'m'
   572   002FD1  65                 	db	101	;'e'
   573   002FD2  00                 	db	0
   574   002FD3                     STR_10:
   575   002FD3  56                 	db	86	;'V'
   576   002FD4  69                 	db	105	;'i'
   577   002FD5  65                 	db	101	;'e'
   578   002FD6  77                 	db	119	;'w'
   579   002FD7  20                 	db	32
   580   002FD8  6C                 	db	108	;'l'
   581   002FD9  6F                 	db	111	;'o'
   582   002FDA  67                 	db	103	;'g'
   583   002FDB  00                 	db	0
   584   002FDC                     STR_34:
   585   002FDC  2E                 	db	46
   586   002FDD  2E                 	db	46
   587   002FDE  2E                 	db	46
   588   002FDF  20                 	db	32
   589   002FE0  73                 	db	115	;'s'
   590   002FE1  65                 	db	101	;'e'
   591   002FE2  63                 	db	99	;'c'
   592   002FE3  00                 	db	0
   593   002FE4                     STR_4:
   594   002FE4  47                 	db	71	;'G'
   595   002FE5  31                 	db	49	;'1'
   596   002FE6  00                 	db	0
   597   002FE7                     STR_5:
   598   002FE7  47                 	db	71	;'G'
   599   002FE8  32                 	db	50	;'2'
   600   002FE9  00                 	db	0
   601   002FEA                     STR_6:
   602   002FEA  47                 	db	71	;'G'
   603   002FEB  33                 	db	51	;'3'
   604   002FEC  00                 	db	0
   605   002FED                     STR_7:
   606   002FED  47                 	db	71	;'G'
   607   002FEE  34                 	db	52	;'4'
   608   002FEF  00                 	db	0
   609   002FF0                     STR_8:
   610   002FF0  47                 	db	71	;'G'
   611   002FF1  35                 	db	53	;'5'
   612   002FF2  00                 	db	0
   613   002FF3                     STR_2:
   614   002FF3  47                 	db	71	;'G'
   615   002FF4  4E                 	db	78	;'N'
   616   002FF5  00                 	db	0
   617   002FF6                     STR_1:
   618   002FF6  4F                 	db	79	;'O'
   619   002FF7  4E                 	db	78	;'N'
   620   002FF8  00                 	db	0
   621   002FF9                     STR_9:
   622   002FF9  43                 	db	67	;'C'
   623   002FFA  4F                 	db	79	;'O'
   624   002FFB  00                 	db	0
   625   002FFC                     STR_3:
   626   002FFC  47                 	db	71	;'G'
   627   002FFD  52                 	db	82	;'R'
   628   002FFE  00                 	db	0
   629   002FFF  00                 	db	0	; dummy byte at the end
   630   000000                     
   631                           ; #config settings
   632                           
   633                           	psect	cinit
   634   0021C8                     __pcinit:
   635                           	callstack 0
   636   0021C8                     start_initialization:
   637                           	callstack 0
   638   0021C8                     __initialization:
   639                           	callstack 0
   640                           
   641                           ; Initialize objects allocated to BANK0 (69 bytes)
   642                           ; load TBLPTR registers with __pidataBANK0
   643   0021C8  0E64               	movlw	low __pidataBANK0
   644   0021CA  6EF6               	movwf	tblptrl,c
   645   0021CC  0E25               	movlw	high __pidataBANK0
   646   0021CE  6EF7               	movwf	tblptrh,c
   647   0021D0  0E00               	movlw	low (__pidataBANK0 shr (0+16))
   648   0021D2  6EF8               	movwf	tblptru,c
   649   0021D4  EE00  F060         	lfsr	0,__pdataBANK0
   650   0021D8  EE10 F045          	lfsr	1,69
   651   0021DC                     copy_data0:
   652   0021DC  0009               	tblrd		*+
   653   0021DE  CFF5 FFEE          	movff	tablat,postinc0
   654   0021E2  50E5               	movf	postdec1,w,c
   655   0021E4  50E1               	movf	fsr1l,w,c
   656   0021E6  E1FA               	bnz	copy_data0
   657                           
   658                           ; Initialize objects allocated to COMRAM (7 bytes)
   659                           ; load TBLPTR registers with __pidataCOMRAM
   660   0021E8  0E46               	movlw	low __pidataCOMRAM
   661   0021EA  6EF6               	movwf	tblptrl,c
   662   0021EC  0E28               	movlw	high __pidataCOMRAM
   663   0021EE  6EF7               	movwf	tblptrh,c
   664   0021F0  0E00               	movlw	low (__pidataCOMRAM shr (0+16))
   665   0021F2  6EF8               	movwf	tblptru,c
   666   0021F4  EE00  F057         	lfsr	0,__pdataCOMRAM
   667   0021F8  EE10 F007          	lfsr	1,7
   668   0021FC                     copy_data1:
   669   0021FC  0009               	tblrd		*+
   670   0021FE  CFF5 FFEE          	movff	tablat,postinc0
   671   002202  50E5               	movf	postdec1,w,c
   672   002204  50E1               	movf	fsr1l,w,c
   673   002206  E1FA               	bnz	copy_data1
   674                           
   675                           ; Clear objects allocated to BANK1 (11 bytes)
   676   002208  EE01  F0AE         	lfsr	0,__pbssBANK1
   677   00220C  0E0B               	movlw	11
   678   00220E                     clear_0:
   679   00220E  6AEE               	clrf	postinc0,c
   680   002210  06E8               	decf	wreg,f,c
   681   002212  E1FD               	bnz	clear_0
   682                           
   683                           ; Clear objects allocated to BANK0 (51 bytes)
   684   002214  EE00  F0A5         	lfsr	0,__pbssBANK0
   685   002218  0E33               	movlw	51
   686   00221A                     clear_1:
   687   00221A  6AEE               	clrf	postinc0,c
   688   00221C  06E8               	decf	wreg,f,c
   689   00221E  E1FD               	bnz	clear_1
   690                           
   691                           ; Clear objects allocated to COMRAM (49 bytes)
   692   002220  EE00  F001         	lfsr	0,__pbssCOMRAM
   693   002224  0E31               	movlw	49
   694   002226                     clear_2:
   695   002226  6AEE               	clrf	postinc0,c
   696   002228  06E8               	decf	wreg,f,c
   697   00222A  E1FD               	bnz	clear_2
   698   00222C                     end_of_initialization:
   699                           	callstack 0
   700   00222C                     __end_of__initialization:
   701                           	callstack 0
   702   00222C  905E               	bcf	int$flags,0,c	;clear compiler interrupt flag (level 1)
   703   00222E  925E               	bcf	int$flags,1,c	;clear compiler interrupt flag (level 2)
   704   002230  0E00               	movlw	low (__Lmediumconst shr (0+16))
   705   002232  6EF8               	movwf	tblptru,c
   706   002234  0100               	movlb	0
   707   002236  EF57  F00D         	goto	_main	;jump to C main() function
   708                           
   709                           	psect	bssCOMRAM
   710   000001                     __pbssCOMRAM:
   711                           	callstack 0
   712   000001                     main_menu@delay1:
   713                           	callstack 0
   714   000001                     	ds	4
   715   000005                     _clock_reg:
   716                           	callstack 0
   717   000005                     	ds	3
   718   000008                     view_log@index:
   719                           	callstack 0
   720   000008                     	ds	2
   721   00000A                     view_log@delay2:
   722                           	callstack 0
   723   00000A                     	ds	2
   724   00000C                     view_log@delay1:
   725                           	callstack 0
   726   00000C                     	ds	2
   727   00000E                     set_time@delay2:
   728                           	callstack 0
   729   00000E                     	ds	2
   730   000010                     set_time@delay1:
   731                           	callstack 0
   732   000010                     	ds	2
   733   000012                     set_time@feild_change:
   734                           	callstack 0
   735   000012                     	ds	2
   736   000014                     change_password@pass_count2:
   737                           	callstack 0
   738   000014                     	ds	2
   739   000016                     change_password@pass_count:
   740                           	callstack 0
   741   000016                     	ds	2
   742   000018                     main_menu@flag:
   743                           	callstack 0
   744   000018                     	ds	2
   745   00001A                     main_menu@count:
   746                           	callstack 0
   747   00001A                     	ds	2
   748   00001C                     main_menu@j:
   749                           	callstack 0
   750   00001C                     	ds	2
   751   00001E                     login_screen@pass_count:
   752                           	callstack 0
   753   00001E                     	ds	2
   754   000020                     login_screen@U_S:
   755                           	callstack 0
   756   000020                     	ds	2
   757   000022                     store_in_eeprom@j:
   758                           	callstack 0
   759   000022                     	ds	2
   760   000024                     _i:
   761                           	callstack 0
   762   000024                     	ds	2
   763   000026                     _main_flag:
   764                           	callstack 0
   765   000026                     	ds	2
   766   000028                     _key:
   767                           	callstack 0
   768   000028                     	ds	2
   769   00002A                     _blink:
   770                           	callstack 0
   771   00002A                     	ds	2
   772   00002C                     _hr:
   773                           	callstack 0
   774   00002C                     	ds	2
   775   00002E                     _min:
   776                           	callstack 0
   777   00002E                     	ds	2
   778   000030                     _sec:
   779                           	callstack 0
   780   000030                     	ds	2
   781                           
   782                           	psect	dataCOMRAM
   783   000057                     __pdataCOMRAM:
   784                           	callstack 0
   785   000057                     login_screen@attempt:
   786                           	callstack 0
   787   000057                     	ds	2
   788   000059                     _at_fail:
   789                           	callstack 0
   790   000059                     	ds	2
   791   00005B                     _event_count:
   792                           	callstack 0
   793   00005B                     	ds	2
   794   00005D                     _once:
   795                           	callstack 0
   796   00005D                     	ds	1
   797                           
   798                           	psect	bssBANK0
   799   0000A5                     __pbssBANK0:
   800                           	callstack 0
   801   0000A5                     	ds	11
   802   0000B0                     isr@count3:
   803                           	callstack 0
   804   0000B0                     	ds	4
   805   0000B4                     isr@count2:
   806                           	callstack 0
   807   0000B4                     	ds	4
   808   0000B8                     isr@count:
   809                           	callstack 0
   810   0000B8                     	ds	4
   811   0000BC                     change_password@delay2:
   812                           	callstack 0
   813   0000BC                     	ds	4
   814   0000C0                     change_password@delay1:
   815                           	callstack 0
   816   0000C0                     	ds	4
   817   0000C4                     main_menu@delay2:
   818                           	callstack 0
   819   0000C4                     	ds	4
   820   0000C8                     set_time@flag:
   821                           	callstack 0
   822   0000C8                     	ds	2
   823   0000CA                     change_password@cs_f:
   824                           	callstack 0
   825   0000CA                     	ds	2
   826   0000CC                     login_screen@pass_complet:
   827                           	callstack 0
   828   0000CC                     	ds	2
   829   0000CE                     change_password@confirm_pass:
   830                           	callstack 0
   831   0000CE                     	ds	5
   832   0000D3                     change_password@read_pass:
   833                           	callstack 0
   834   0000D3                     	ds	5
   835                           
   836                           	psect	dataBANK0
   837   000060                     __pdataBANK0:
   838                           	callstack 0
   839   000060                     _event:
   840                           	callstack 0
   841   000060                     	ds	18
   842   000072                     _menu:
   843                           	callstack 0
   844   000072                     	ds	10
   845   00007C                     view_log@flag:
   846                           	callstack 0
   847   00007C                     	ds	2
   848   00007E                     dash_board@f:
   849                           	callstack 0
   850   00007E                     	ds	2
   851   000080                     _E_P_T:
   852                           	callstack 0
   853   000080                     	ds	2
   854   000082                     _dashboard:
   855                           	callstack 0
   856   000082                     	ds	16
   857   000092                     _time:
   858                           	callstack 0
   859   000092                     	ds	9
   860   00009B                     _orig_pass:
   861                           	callstack 0
   862   00009B                     	ds	5
   863   0000A0                     _usr_pass:
   864                           	callstack 0
   865   0000A0                     	ds	5
   866                           
   867                           	psect	bssBANK1
   868   0001AE                     __pbssBANK1:
   869                           	callstack 0
   870   0001AE                     _data:
   871                           	callstack 0
   872   0001AE                     	ds	11
   873                           
   874                           	psect	cstackBANK1
   875   000100                     __pcstackBANK1:
   876                           	callstack 0
   877   000100                     downlode_log@downlode_events:
   878                           	callstack 0
   879                           
   880                           ; 170 bytes @ 0x0
   881   000100                     	ds	170
   882   0001AA                     downlode_log@k:
   883                           	callstack 0
   884                           
   885                           ; 2 bytes @ 0xAA
   886   0001AA                     	ds	2
   887   0001AC                     downlode_log@i:
   888                           	callstack 0
   889                           
   890                           ; 2 bytes @ 0xAC
   891   0001AC                     	ds	2
   892                           
   893                           	psect	cstackCOMRAM
   894   000032                     __pcstackCOMRAM:
   895                           	callstack 0
   896   000032                     ?_read_adc:
   897                           	callstack 0
   898   000032                     ?_strcmp:
   899                           	callstack 0
   900   000032                     ?___wmul:
   901                           	callstack 0
   902   000032                     ?___awdiv:
   903                           	callstack 0
   904   000032                     ?___lwmod:
   905                           	callstack 0
   906   000032                     clcd_write@control_bit:
   907                           	callstack 0
   908   000032                     read_switches@detection:
   909                           	callstack 0
   910   000032                     i2c_write@data:
   911                           	callstack 0
   912   000032                     putch@byte:
   913                           	callstack 0
   914   000032                     strcmp@l:
   915                           	callstack 0
   916   000032                     strcpy@dest:
   917                           	callstack 0
   918   000032                     ___wmul@multiplier:
   919                           	callstack 0
   920   000032                     ___awdiv@dividend:
   921                           	callstack 0
   922   000032                     ___lwmod@dividend:
   923                           	callstack 0
   924                           
   925                           ; 2 bytes @ 0x0
   926   000032                     	ds	1
   927   000033                     clcd_write@byte:
   928                           	callstack 0
   929   000033                     read_switches@key:
   930                           	callstack 0
   931   000033                     write_ds1307@data:
   932                           	callstack 0
   933   000033                     read_ds1307@address:
   934                           	callstack 0
   935   000033                     write_external_eeprom@data:
   936                           	callstack 0
   937   000033                     strcmp@r:
   938                           	callstack 0
   939   000033                     strcpy@src:
   940                           	callstack 0
   941   000033                     read_external_eeprom@i:
   942                           	callstack 0
   943                           
   944                           ; 2 bytes @ 0x1
   945   000033                     	ds	1
   946   000034                     ??_init_clcd:
   947   000034                     ??_read_adc:
   948   000034                     ??_strcmp:
   949   000034                     write_ds1307@address:
   950                           	callstack 0
   951   000034                     read_ds1307@data:
   952                           	callstack 0
   953   000034                     strcpy@d:
   954                           	callstack 0
   955   000034                     clcd_print@data:
   956                           	callstack 0
   957   000034                     write_external_eeprom@i:
   958                           	callstack 0
   959   000034                     ___wmul@multiplicand:
   960                           	callstack 0
   961   000034                     ___awdiv@divisor:
   962                           	callstack 0
   963   000034                     ___lwmod@divisor:
   964                           	callstack 0
   965                           
   966                           ; 2 bytes @ 0x2
   967   000034                     	ds	1
   968   000035                     init_ds1307@dummy:
   969                           	callstack 0
   970   000035                     read_external_eeprom@address:
   971                           	callstack 0
   972                           
   973                           ; 1 bytes @ 0x3
   974   000035                     	ds	1
   975   000036                     clcd_print@addr:
   976                           	callstack 0
   977   000036                     write_external_eeprom@address:
   978                           	callstack 0
   979   000036                     read_external_eeprom@data:
   980                           	callstack 0
   981   000036                     ___awdiv@counter:
   982                           	callstack 0
   983   000036                     ___lwmod@counter:
   984                           	callstack 0
   985   000036                     ___wmul@product:
   986                           	callstack 0
   987                           
   988                           ; 2 bytes @ 0x4
   989   000036                     	ds	1
   990   000037                     ??_clear_log:
   991   000037                     read_adc@channel:
   992                           	callstack 0
   993   000037                     ___awdiv@sign:
   994                           	callstack 0
   995                           
   996                           ; 1 bytes @ 0x5
   997   000037                     	ds	1
   998   000038                     ?___lwdiv:
   999                           	callstack 0
  1000   000038                     read_from_EEPROM@j:
  1001                           	callstack 0
  1002   000038                     puts@s:
  1003                           	callstack 0
  1004   000038                     ___awdiv@quotient:
  1005                           	callstack 0
  1006   000038                     ___lwdiv@dividend:
  1007                           	callstack 0
  1008                           
  1009                           ; 2 bytes @ 0x6
  1010   000038                     	ds	2
  1011   00003A                     ?___awmod:
  1012                           	callstack 0
  1013   00003A                     read_from_EEPROM@i:
  1014                           	callstack 0
  1015   00003A                     ___awmod@dividend:
  1016                           	callstack 0
  1017   00003A                     ___lwdiv@divisor:
  1018                           	callstack 0
  1019                           
  1020                           ; 2 bytes @ 0x8
  1021   00003A                     	ds	2
  1022   00003C                     ??_view_log:
  1023   00003C                     ??_downlode_log:
  1024   00003C                     ___awmod@divisor:
  1025                           	callstack 0
  1026   00003C                     ___lwdiv@quotient:
  1027                           	callstack 0
  1028                           
  1029                           ; 2 bytes @ 0xA
  1030   00003C                     	ds	2
  1031   00003E                     ___awmod@counter:
  1032                           	callstack 0
  1033   00003E                     ___lwdiv@counter:
  1034                           	callstack 0
  1035   00003E                     view_log@log_event:
  1036                           	callstack 0
  1037                           
  1038                           ; 16 bytes @ 0xC
  1039   00003E                     	ds	1
  1040   00003F                     ___awmod@sign:
  1041                           	callstack 0
  1042                           
  1043                           ; 1 bytes @ 0xD
  1044   00003F                     	ds	1
  1045   000040                     clcd_putch@addr:
  1046                           	callstack 0
  1047   000040                     store_in_eeprom@speed:
  1048                           	callstack 0
  1049                           
  1050                           ; 2 bytes @ 0xE
  1051   000040                     	ds	1
  1052   000041                     clcd_putch@data:
  1053                           	callstack 0
  1054                           
  1055                           ; 1 bytes @ 0xF
  1056   000041                     	ds	1
  1057   000042                     ??_login_screen:
  1058   000042                     ??_main_menu:
  1059   000042                     ??_set_time:
  1060   000042                     ??_change_password:
  1061   000042                     ??_store_in_eeprom:
  1062                           
  1063                           ; 1 bytes @ 0x10
  1064   000042                     	ds	2
  1065   000044                     store_in_eeprom@data:
  1066                           	callstack 0
  1067                           
  1068                           ; 11 bytes @ 0x12
  1069   000044                     	ds	11
  1070   00004F                     store_in_eeprom@i:
  1071                           	callstack 0
  1072                           
  1073                           ; 2 bytes @ 0x1D
  1074   00004F                     	ds	2
  1075   000051                     dash_board@i:
  1076                           	callstack 0
  1077                           
  1078                           ; 2 bytes @ 0x1F
  1079   000051                     	ds	2
  1080   000053                     dash_board@speed:
  1081                           	callstack 0
  1082                           
  1083                           ; 2 bytes @ 0x21
  1084   000053                     	ds	2
  1085   000055                     ??_main:
  1086                           
  1087                           ; 1 bytes @ 0x23
  1088   000055                     	ds	2
  1089                           
  1090 ;;
  1091 ;;Main: autosize = 0, tempsize = 2, incstack = 0, save=0
  1092 ;;
  1093 ;; *************** function _main *****************
  1094 ;; Defined at:
  1095 ;;		line 29 in file "MAIN.c"
  1096 ;; Parameters:    Size  Location     Type
  1097 ;;		None
  1098 ;; Auto vars:     Size  Location     Type
  1099 ;;		None
  1100 ;; Return value:  Size  Location     Type
  1101 ;;                  1    wreg      void 
  1102 ;; Registers used:
  1103 ;;		wreg, fsr0l, fsr0h, fsr1l, fsr1h, fsr2l, fsr2h, status,2, status,0, tblptrl, tblptrh, tblptru, prodl, prodh, cstack
  1104 ;; Tracked objects:
  1105 ;;		On entry : 0/0
  1106 ;;		On exit  : 0/0
  1107 ;;		Unchanged: 0/0
  1108 ;; Data sizes:     COMRAM   BANK0   BANK1   BANK2   BANK3   BANK4   BANK5
  1109 ;;      Params:         0       0       0       0       0       0       0
  1110 ;;      Locals:         0       0       0       0       0       0       0
  1111 ;;      Temps:          2       0       0       0       0       0       0
  1112 ;;      Totals:         2       0       0       0       0       0       0
  1113 ;;Total ram usage:        2 bytes
  1114 ;; Hardware stack levels required when called: 7
  1115 ;; This function calls:
  1116 ;;		_change_password
  1117 ;;		_clear_log
  1118 ;;		_dash_board
  1119 ;;		_downlode_log
  1120 ;;		_init_config
  1121 ;;		_login_screen
  1122 ;;		_main_menu
  1123 ;;		_read_switches
  1124 ;;		_set_time
  1125 ;;		_view_log
  1126 ;; This function is called by:
  1127 ;;		Startup code after reset
  1128 ;; This function uses a non-reentrant model
  1129 ;;
  1130                           
  1131                           	psect	text0
  1132   001AAE                     __ptext0:
  1133                           	callstack 0
  1134   001AAE                     _main:
  1135                           	callstack 24
  1136   001AAE                     
  1137                           ;MAIN.c: 31:     init_config();
  1138   001AAE  EC6C  F012         	call	_init_config	;wreg free
  1139   001AB2                     l4302:
  1140                           
  1141                           ;MAIN.c: 34:     {;MAIN.c: 35:         if(main_flag >= 2)
  1142   001AB2  BE27               	btfsc	(_main_flag+1)^0,7,c
  1143   001AB4  EF65  F00D         	goto	u3191
  1144   001AB8  5027               	movf	(_main_flag+1)^0,w,c
  1145   001ABA  E109               	bnz	u3190
  1146   001ABC  0E02               	movlw	2
  1147   001ABE  5C26               	subwf	_main_flag^0,w,c
  1148   001AC0  A0D8               	btfss	status,0,c
  1149   001AC2  EF65  F00D         	goto	u3191
  1150   001AC6  EF67  F00D         	goto	u3190
  1151   001ACA                     u3191:
  1152   001ACA  EF72  F00D         	goto	l4306
  1153   001ACE                     u3190:
  1154   001ACE                     
  1155                           ;MAIN.c: 36:         {;MAIN.c: 37:            key = read_switches(0);
  1156   001ACE  0E00               	movlw	0
  1157   001AD0  EC1D  F011         	call	_read_switches
  1158   001AD4  6E55               	movwf	??_main^0,c
  1159   001AD6  6A56               	clrf	(??_main+1)^0,c
  1160   001AD8  C055  F028         	movff	??_main,_key
  1161   001ADC  C056  F029         	movff	??_main+1,_key+1
  1162                           
  1163                           ;MAIN.c: 38:         }
  1164   001AE0  EF7B  F00D         	goto	l4308
  1165   001AE4                     l4306:
  1166                           
  1167                           ;MAIN.c: 40:         {;MAIN.c: 41:             key = read_switches(1);
  1168   001AE4  0E01               	movlw	1
  1169   001AE6  EC1D  F011         	call	_read_switches
  1170   001AEA  6E55               	movwf	??_main^0,c
  1171   001AEC  6A56               	clrf	(??_main+1)^0,c
  1172   001AEE  C055  F028         	movff	??_main,_key
  1173   001AF2  C056  F029         	movff	??_main+1,_key+1
  1174   001AF6                     l4308:
  1175                           
  1176                           ;MAIN.c: 46:         if (main_flag == 0)
  1177   001AF6  5026               	movf	_main_flag^0,w,c
  1178   001AF8  1027               	iorwf	(_main_flag+1)^0,w,c
  1179   001AFA  A4D8               	btfss	status,2,c
  1180   001AFC  EF82  F00D         	goto	u3201
  1181   001B00  EF84  F00D         	goto	u3200
  1182   001B04                     u3201:
  1183   001B04  EF86  F00D         	goto	l4312
  1184   001B08                     u3200:
  1185   001B08                     
  1186                           ;MAIN.c: 47:         {;MAIN.c: 48:             dash_board();
  1187   001B08  EC2A  F00C         	call	_dash_board	;wreg free
  1188   001B0C                     l4312:
  1189                           
  1190                           ;MAIN.c: 50:         if (main_flag == 1)
  1191   001B0C  0426               	decf	_main_flag^0,w,c
  1192   001B0E  1027               	iorwf	(_main_flag+1)^0,w,c
  1193   001B10  A4D8               	btfss	status,2,c
  1194   001B12  EF8D  F00D         	goto	u3211
  1195   001B16  EF8F  F00D         	goto	u3210
  1196   001B1A                     u3211:
  1197   001B1A  EF91  F00D         	goto	l4316
  1198   001B1E                     u3210:
  1199   001B1E                     
  1200                           ;MAIN.c: 51:         {;MAIN.c: 52:             login_screen();
  1201   001B1E  EC2F  F007         	call	_login_screen	;wreg free
  1202   001B22                     l4316:
  1203                           
  1204                           ;MAIN.c: 54:         if(main_flag == 2)
  1205   001B22  0E02               	movlw	2
  1206   001B24  1826               	xorwf	_main_flag^0,w,c
  1207   001B26  1027               	iorwf	(_main_flag+1)^0,w,c
  1208   001B28  A4D8               	btfss	status,2,c
  1209   001B2A  EF99  F00D         	goto	u3221
  1210   001B2E  EF9B  F00D         	goto	u3220
  1211   001B32                     u3221:
  1212   001B32  EF9D  F00D         	goto	l4320
  1213   001B36                     u3220:
  1214   001B36                     
  1215                           ;MAIN.c: 55:         {;MAIN.c: 56:             main_menu();
  1216   001B36  EC2F  F009         	call	_main_menu	;wreg free
  1217   001B3A                     l4320:
  1218                           
  1219                           ;MAIN.c: 58:         if(main_flag == 10)
  1220   001B3A  0E0A               	movlw	10
  1221   001B3C  1826               	xorwf	_main_flag^0,w,c
  1222   001B3E  1027               	iorwf	(_main_flag+1)^0,w,c
  1223   001B40  A4D8               	btfss	status,2,c
  1224   001B42  EFA5  F00D         	goto	u3231
  1225   001B46  EFA7  F00D         	goto	u3230
  1226   001B4A                     u3231:
  1227   001B4A  EFA9  F00D         	goto	l4324
  1228   001B4E                     u3230:
  1229   001B4E                     
  1230                           ;MAIN.c: 59:         {;MAIN.c: 60:             view_log();
  1231   001B4E  ECDE  F00A         	call	_view_log	;wreg free
  1232   001B52                     l4324:
  1233                           
  1234                           ;MAIN.c: 62:         if(main_flag == 11)
  1235   001B52  0E0B               	movlw	11
  1236   001B54  1826               	xorwf	_main_flag^0,w,c
  1237   001B56  1027               	iorwf	(_main_flag+1)^0,w,c
  1238   001B58  A4D8               	btfss	status,2,c
  1239   001B5A  EFB1  F00D         	goto	u3241
  1240   001B5E  EFB3  F00D         	goto	u3240
  1241   001B62                     u3241:
  1242   001B62  EFB5  F00D         	goto	l4328
  1243   001B66                     u3240:
  1244   001B66                     
  1245                           ;MAIN.c: 63:         {;MAIN.c: 64:             set_time();
  1246   001B66  EC09  F000         	call	_set_time	;wreg free
  1247   001B6A                     l4328:
  1248                           
  1249                           ;MAIN.c: 66:         if(main_flag == 12)
  1250   001B6A  0E0C               	movlw	12
  1251   001B6C  1826               	xorwf	_main_flag^0,w,c
  1252   001B6E  1027               	iorwf	(_main_flag+1)^0,w,c
  1253   001B70  A4D8               	btfss	status,2,c
  1254   001B72  EFBD  F00D         	goto	u3251
  1255   001B76  EFBF  F00D         	goto	u3250
  1256   001B7A                     u3251:
  1257   001B7A  EFC1  F00D         	goto	l4332
  1258   001B7E                     u3250:
  1259   001B7E                     
  1260                           ;MAIN.c: 67:         {;MAIN.c: 68:             downlode_log();
  1261   001B7E  EC1B  F005         	call	_downlode_log	;wreg free
  1262   001B82                     l4332:
  1263                           
  1264                           ;MAIN.c: 70:         if(main_flag == 13)
  1265   001B82  0E0D               	movlw	13
  1266   001B84  1826               	xorwf	_main_flag^0,w,c
  1267   001B86  1027               	iorwf	(_main_flag+1)^0,w,c
  1268   001B88  A4D8               	btfss	status,2,c
  1269   001B8A  EFC9  F00D         	goto	u3261
  1270   001B8E  EFCB  F00D         	goto	u3260
  1271   001B92                     u3261:
  1272   001B92  EFCD  F00D         	goto	l4336
  1273   001B96                     u3260:
  1274   001B96                     
  1275                           ;MAIN.c: 71:         {;MAIN.c: 72:             clear_log();
  1276   001B96  EC1C  F012         	call	_clear_log	;wreg free
  1277   001B9A                     l4336:
  1278                           
  1279                           ;MAIN.c: 74:         if(main_flag == 14)
  1280   001B9A  0E0E               	movlw	14
  1281   001B9C  1826               	xorwf	_main_flag^0,w,c
  1282   001B9E  1027               	iorwf	(_main_flag+1)^0,w,c
  1283   001BA0  A4D8               	btfss	status,2,c
  1284   001BA2  EFD5  F00D         	goto	u3271
  1285   001BA6  EFD7  F00D         	goto	u3270
  1286   001BAA                     u3271:
  1287   001BAA  EF59  F00D         	goto	l4302
  1288   001BAE                     u3270:
  1289   001BAE                     
  1290                           ;MAIN.c: 75:         {;MAIN.c: 76:             change_password();
  1291   001BAE  ECEE  F002         	call	_change_password	;wreg free
  1292   001BB2  EF59  F00D         	goto	l4302
  1293   001BB6  EF07  F000         	goto	start
  1294   001BBA                     __end_of_main:
  1295                           	callstack 0
  1296                           
  1297 ;; *************** function _view_log *****************
  1298 ;; Defined at:
  1299 ;;		line 558 in file "black_box.c"
  1300 ;; Parameters:    Size  Location     Type
  1301 ;;		None
  1302 ;; Auto vars:     Size  Location     Type
  1303 ;;  log_event      16   12[COMRAM] unsigned char [16]
  1304 ;; Return value:  Size  Location     Type
  1305 ;;                  1    wreg      void 
  1306 ;; Registers used:
  1307 ;;		wreg, fsr0l, fsr0h, fsr2l, fsr2h, status,2, status,0, tblptrl, tblptrh, tblptru, prodl, prodh, cstack
  1308 ;; Tracked objects:
  1309 ;;		On entry : 0/0
  1310 ;;		On exit  : 0/0
  1311 ;;		Unchanged: 0/0
  1312 ;; Data sizes:     COMRAM   BANK0   BANK1   BANK2   BANK3   BANK4   BANK5
  1313 ;;      Params:         0       0       0       0       0       0       0
  1314 ;;      Locals:        16       0       0       0       0       0       0
  1315 ;;      Temps:          2       0       0       0       0       0       0
  1316 ;;      Totals:        18       0       0       0       0       0       0
  1317 ;;Total ram usage:       18 bytes
  1318 ;; Hardware stack levels used: 1
  1319 ;; Hardware stack levels required when called: 6
  1320 ;; This function calls:
  1321 ;;		___wmul
  1322 ;;		_clcd_print
  1323 ;;		_clcd_write
  1324 ;;		_read_from_EEPROM
  1325 ;; This function is called by:
  1326 ;;		_main
  1327 ;; This function uses a non-reentrant model
  1328 ;;
  1329                           
  1330                           	psect	text1
  1331   0015BC                     __ptext1:
  1332                           	callstack 0
  1333   0015BC                     _view_log:
  1334                           	callstack 24
  1335   0015BC                     
  1336                           ;black_box.c: 560:     if(event_count)
  1337   0015BC  505B               	movf	_event_count^0,w,c
  1338   0015BE  105C               	iorwf	(_event_count+1)^0,w,c
  1339   0015C0  B4D8               	btfsc	status,2,c
  1340   0015C2  EFE5  F00A         	goto	u2581
  1341   0015C6  EFE7  F00A         	goto	u2580
  1342   0015CA                     u2581:
  1343   0015CA  EF0E  F00C         	goto	l3944
  1344   0015CE                     u2580:
  1345   0015CE                     
  1346                           ;black_box.c: 561:     {;black_box.c: 562:         static unsigned int delay1=0, delay2=
      +                          0,index=0;;black_box.c: 563:         static short flag=1;;black_box.c: 564:         if(f
      +                          lag)
  1347   0015CE  0100               	movlb	0	; () banked
  1348   0015D0  517C               	movf	view_log@flag& (0+255),w,b
  1349   0015D2  117D               	iorwf	(view_log@flag+1)& (0+255),w,b
  1350   0015D4  B4D8               	btfsc	status,2,c
  1351   0015D6  EFEF  F00A         	goto	u2591
  1352   0015DA  EFF1  F00A         	goto	u2590
  1353   0015DE                     u2591:
  1354   0015DE  EF05  F00B         	goto	l3852
  1355   0015E2                     u2590:
  1356   0015E2                     
  1357                           ; BSR set to: 0
  1358                           ;black_box.c: 565:         {;black_box.c: 566:              flag=0;
  1359   0015E2  0E00               	movlw	0
  1360   0015E4  6F7D               	movwf	(view_log@flag+1)& (0+255),b
  1361   0015E6  0E00               	movlw	0
  1362   0015E8  6F7C               	movwf	view_log@flag& (0+255),b
  1363   0015EA                     
  1364                           ; BSR set to: 0
  1365                           ;black_box.c: 567:             read_from_EEPROM(index*10);
  1366   0015EA  C008  F032         	movff	view_log@index,___wmul@multiplier
  1367   0015EE  C009  F033         	movff	view_log@index+1,___wmul@multiplier+1
  1368   0015F2  0E00               	movlw	0
  1369   0015F4  6E35               	movwf	(___wmul@multiplicand+1)^0,c
  1370   0015F6  0E0A               	movlw	10
  1371   0015F8  6E34               	movwf	___wmul@multiplicand^0,c
  1372   0015FA  EC91  F013         	call	___wmul	;wreg free
  1373   0015FE  C032  F038         	movff	?___wmul,read_from_EEPROM@j
  1374   001602  C033  F039         	movff	?___wmul+1,read_from_EEPROM@j+1
  1375   001606  ECD5  F012         	call	_read_from_EEPROM	;wreg free
  1376   00160A                     l3852:
  1377                           
  1378                           ;black_box.c: 569:         clcd_print("# TIME     EV SP",(0x80 + (0)));
  1379   00160A  0ED8               	movlw	low STR_41
  1380   00160C  6E34               	movwf	clcd_print@data^0,c
  1381   00160E  0E2E               	movlw	high STR_41
  1382   001610  6E35               	movwf	(clcd_print@data+1)^0,c
  1383   001612  0E80               	movlw	128
  1384   001614  6E36               	movwf	clcd_print@addr^0,c
  1385   001616  EC56  F011         	call	_clcd_print	;wreg free
  1386   00161A                     
  1387                           ;black_box.c: 570:         if (key == (char*)11 || key == (char*)12)
  1388   00161A  0E0B               	movlw	11
  1389   00161C  1828               	xorwf	_key^0,w,c
  1390   00161E  1029               	iorwf	(_key+1)^0,w,c
  1391   001620  B4D8               	btfsc	status,2,c
  1392   001622  EF15  F00B         	goto	u2601
  1393   001626  EF17  F00B         	goto	u2600
  1394   00162A                     u2601:
  1395   00162A  EF21  F00B         	goto	l3858
  1396   00162E                     u2600:
  1397   00162E  0E0C               	movlw	12
  1398   001630  1828               	xorwf	_key^0,w,c
  1399   001632  1029               	iorwf	(_key+1)^0,w,c
  1400   001634  A4D8               	btfss	status,2,c
  1401   001636  EF1F  F00B         	goto	u2611
  1402   00163A  EF21  F00B         	goto	u2610
  1403   00163E                     u2611:
  1404   00163E  EF6C  F00B         	goto	l3880
  1405   001642                     u2610:
  1406   001642                     l3858:
  1407                           
  1408                           ;black_box.c: 571:         {;black_box.c: 572:             if(key == (char*)11 && ++dela
      +                          y1 >= 500 )
  1409   001642  0E0B               	movlw	11
  1410   001644  1828               	xorwf	_key^0,w,c
  1411   001646  1029               	iorwf	(_key+1)^0,w,c
  1412   001648  A4D8               	btfss	status,2,c
  1413   00164A  EF29  F00B         	goto	u2621
  1414   00164E  EF2B  F00B         	goto	u2620
  1415   001652                     u2621:
  1416   001652  EF3E  F00B         	goto	l3864
  1417   001656                     u2620:
  1418   001656  4A0C               	infsnz	view_log@delay1^0,f,c
  1419   001658  2A0D               	incf	(view_log@delay1+1)^0,f,c
  1420   00165A  0EF4               	movlw	244
  1421   00165C  5C0C               	subwf	view_log@delay1^0,w,c
  1422   00165E  0E01               	movlw	1
  1423   001660  580D               	subwfb	(view_log@delay1+1)^0,w,c
  1424   001662  A0D8               	btfss	status,0,c
  1425   001664  EF36  F00B         	goto	u2631
  1426   001668  EF38  F00B         	goto	u2630
  1427   00166C                     u2631:
  1428   00166C  EF3E  F00B         	goto	l3864
  1429   001670                     u2630:
  1430   001670                     l3862:
  1431                           
  1432                           ;black_box.c: 573:             {;black_box.c: 574:                 delay1=0;
  1433   001670  0E00               	movlw	0
  1434   001672  6E0D               	movwf	(view_log@delay1+1)^0,c
  1435   001674  0E00               	movlw	0
  1436   001676  6E0C               	movwf	view_log@delay1^0,c
  1437                           
  1438                           ;black_box.c: 575:             }
  1439   001678  EFE2  F00B         	goto	l3908
  1440   00167C                     l3864:
  1441   00167C  0E0C               	movlw	12
  1442   00167E  1828               	xorwf	_key^0,w,c
  1443   001680  1029               	iorwf	(_key+1)^0,w,c
  1444   001682  A4D8               	btfss	status,2,c
  1445   001684  EF46  F00B         	goto	u2641
  1446   001688  EF48  F00B         	goto	u2640
  1447   00168C                     u2641:
  1448   00168C  EFE2  F00B         	goto	l3908
  1449   001690                     u2640:
  1450   001690  4A0A               	infsnz	view_log@delay2^0,f,c
  1451   001692  2A0B               	incf	(view_log@delay2+1)^0,f,c
  1452   001694  0EF4               	movlw	244
  1453   001696  5C0A               	subwf	view_log@delay2^0,w,c
  1454   001698  0E01               	movlw	1
  1455   00169A  580B               	subwfb	(view_log@delay2+1)^0,w,c
  1456   00169C  A0D8               	btfss	status,0,c
  1457   00169E  EF53  F00B         	goto	u2651
  1458   0016A2  EF55  F00B         	goto	u2650
  1459   0016A6                     u2651:
  1460   0016A6  EFE2  F00B         	goto	l3908
  1461   0016AA                     u2650:
  1462   0016AA                     
  1463                           ;black_box.c: 577:             {;black_box.c: 578:                 clcd_write(0x01, 0);
  1464   0016AA  0E00               	movlw	0
  1465   0016AC  6E32               	movwf	clcd_write@control_bit^0,c
  1466   0016AE  0E01               	movlw	1
  1467   0016B0  EC35  F013         	call	_clcd_write
  1468   0016B4                     
  1469                           ;black_box.c: 579:                 delay1=0, delay2=0,index=0;
  1470   0016B4  0E00               	movlw	0
  1471   0016B6  6E0D               	movwf	(view_log@delay1+1)^0,c
  1472   0016B8  0E00               	movlw	0
  1473   0016BA  6E0C               	movwf	view_log@delay1^0,c
  1474   0016BC  0E00               	movlw	0
  1475   0016BE  6E0B               	movwf	(view_log@delay2+1)^0,c
  1476   0016C0  0E00               	movlw	0
  1477   0016C2  6E0A               	movwf	view_log@delay2^0,c
  1478   0016C4  0E00               	movlw	0
  1479   0016C6  6E09               	movwf	(view_log@index+1)^0,c
  1480   0016C8  0E00               	movlw	0
  1481   0016CA  6E08               	movwf	view_log@index^0,c
  1482   0016CC                     l3876:
  1483                           
  1484                           ;black_box.c: 580:                 main_flag = 2;
  1485   0016CC  0E00               	movlw	0
  1486   0016CE  6E27               	movwf	(_main_flag+1)^0,c
  1487   0016D0  0E02               	movlw	2
  1488   0016D2  6E26               	movwf	_main_flag^0,c
  1489   0016D4  EF29  F00C         	goto	l361
  1490   0016D8                     l3880:
  1491   0016D8  500C               	movf	view_log@delay1^0,w,c
  1492   0016DA  100D               	iorwf	(view_log@delay1+1)^0,w,c
  1493   0016DC  B4D8               	btfsc	status,2,c
  1494   0016DE  EF73  F00B         	goto	u2661
  1495   0016E2  EF75  F00B         	goto	u2660
  1496   0016E6                     u2661:
  1497   0016E6  EF9F  F00B         	goto	l3892
  1498   0016EA                     u2660:
  1499   0016EA  0EF4               	movlw	244
  1500   0016EC  5C0C               	subwf	view_log@delay1^0,w,c
  1501   0016EE  0E01               	movlw	1
  1502   0016F0  580D               	subwfb	(view_log@delay1+1)^0,w,c
  1503   0016F2  B0D8               	btfsc	status,0,c
  1504   0016F4  EF7E  F00B         	goto	u2671
  1505   0016F8  EF80  F00B         	goto	u2670
  1506   0016FC                     u2671:
  1507   0016FC  EF9F  F00B         	goto	l3892
  1508   001700                     u2670:
  1509   001700                     
  1510                           ;black_box.c: 585:         {;black_box.c: 586:              if(index < event_count)
  1511   001700  505B               	movf	_event_count^0,w,c
  1512   001702  5C08               	subwf	view_log@index^0,w,c
  1513   001704  505C               	movf	(_event_count+1)^0,w,c
  1514   001706  5809               	subwfb	(view_log@index+1)^0,w,c
  1515   001708  B0D8               	btfsc	status,0,c
  1516   00170A  EF89  F00B         	goto	u2681
  1517   00170E  EF8B  F00B         	goto	u2680
  1518   001712                     u2681:
  1519   001712  EF38  F00B         	goto	l3862
  1520   001716                     u2680:
  1521   001716                     
  1522                           ;black_box.c: 587:             {;black_box.c: 588:                  index++;
  1523   001716  4A08               	infsnz	view_log@index^0,f,c
  1524   001718  2A09               	incf	(view_log@index+1)^0,f,c
  1525   00171A                     
  1526                           ;black_box.c: 589:                 read_from_EEPROM(index*10);
  1527   00171A  C008  F032         	movff	view_log@index,___wmul@multiplier
  1528   00171E  C009  F033         	movff	view_log@index+1,___wmul@multiplier+1
  1529   001722  0E00               	movlw	0
  1530   001724  6E35               	movwf	(___wmul@multiplicand+1)^0,c
  1531   001726  0E0A               	movlw	10
  1532   001728  6E34               	movwf	___wmul@multiplicand^0,c
  1533   00172A  EC91  F013         	call	___wmul	;wreg free
  1534   00172E  C032  F038         	movff	?___wmul,read_from_EEPROM@j
  1535   001732  C033  F039         	movff	?___wmul+1,read_from_EEPROM@j+1
  1536   001736  ECD5  F012         	call	_read_from_EEPROM	;wreg free
  1537   00173A  EF38  F00B         	goto	l3862
  1538   00173E                     l3892:
  1539   00173E  500A               	movf	view_log@delay2^0,w,c
  1540   001740  100B               	iorwf	(view_log@delay2+1)^0,w,c
  1541   001742  B4D8               	btfsc	status,2,c
  1542   001744  EFA6  F00B         	goto	u2691
  1543   001748  EFA8  F00B         	goto	u2690
  1544   00174C                     u2691:
  1545   00174C  EFDA  F00B         	goto	l3906
  1546   001750                     u2690:
  1547   001750  0EF4               	movlw	244
  1548   001752  5C0A               	subwf	view_log@delay2^0,w,c
  1549   001754  0E01               	movlw	1
  1550   001756  580B               	subwfb	(view_log@delay2+1)^0,w,c
  1551   001758  B0D8               	btfsc	status,0,c
  1552   00175A  EFB1  F00B         	goto	u2701
  1553   00175E  EFB3  F00B         	goto	u2700
  1554   001762                     u2701:
  1555   001762  EFDA  F00B         	goto	l3906
  1556   001766                     u2700:
  1557   001766                     
  1558                           ;black_box.c: 594:         {;black_box.c: 595:              if(index > 0)
  1559   001766  5008               	movf	view_log@index^0,w,c
  1560   001768  1009               	iorwf	(view_log@index+1)^0,w,c
  1561   00176A  B4D8               	btfsc	status,2,c
  1562   00176C  EFBA  F00B         	goto	u2711
  1563   001770  EFBC  F00B         	goto	u2710
  1564   001774                     u2711:
  1565   001774  EFD4  F00B         	goto	l3904
  1566   001778                     u2710:
  1567   001778                     
  1568                           ;black_box.c: 596:             {;black_box.c: 597:                  index--;
  1569   001778  0608               	decf	view_log@index^0,f,c
  1570   00177A  A0D8               	btfss	status,0,c
  1571   00177C  0609               	decf	(view_log@index+1)^0,f,c
  1572   00177E                     
  1573                           ;black_box.c: 598:                 flag = 1;
  1574   00177E  0E00               	movlw	0
  1575   001780  0100               	movlb	0	; () banked
  1576   001782  6F7D               	movwf	(view_log@flag+1)& (0+255),b
  1577   001784  0E01               	movlw	1
  1578   001786  6F7C               	movwf	view_log@flag& (0+255),b
  1579   001788                     
  1580                           ; BSR set to: 0
  1581                           ;black_box.c: 599:                 read_from_EEPROM(index*10);
  1582   001788  C008  F032         	movff	view_log@index,___wmul@multiplier
  1583   00178C  C009  F033         	movff	view_log@index+1,___wmul@multiplier+1
  1584   001790  0E00               	movlw	0
  1585   001792  6E35               	movwf	(___wmul@multiplicand+1)^0,c
  1586   001794  0E0A               	movlw	10
  1587   001796  6E34               	movwf	___wmul@multiplicand^0,c
  1588   001798  EC91  F013         	call	___wmul	;wreg free
  1589   00179C  C032  F038         	movff	?___wmul,read_from_EEPROM@j
  1590   0017A0  C033  F039         	movff	?___wmul+1,read_from_EEPROM@j+1
  1591   0017A4  ECD5  F012         	call	_read_from_EEPROM	;wreg free
  1592   0017A8                     l3904:
  1593                           
  1594                           ;black_box.c: 601:             delay2 = 0;
  1595   0017A8  0E00               	movlw	0
  1596   0017AA  6E0B               	movwf	(view_log@delay2+1)^0,c
  1597   0017AC  0E00               	movlw	0
  1598   0017AE  6E0A               	movwf	view_log@delay2^0,c
  1599                           
  1600                           ;black_box.c: 602:         }
  1601   0017B0  EFE2  F00B         	goto	l3908
  1602   0017B4                     l3906:
  1603                           
  1604                           ;black_box.c: 604:         {;black_box.c: 605:              delay1=0;delay2=0;
  1605   0017B4  0E00               	movlw	0
  1606   0017B6  6E0D               	movwf	(view_log@delay1+1)^0,c
  1607   0017B8  0E00               	movlw	0
  1608   0017BA  6E0C               	movwf	view_log@delay1^0,c
  1609   0017BC  0E00               	movlw	0
  1610   0017BE  6E0B               	movwf	(view_log@delay2+1)^0,c
  1611   0017C0  0E00               	movlw	0
  1612   0017C2  6E0A               	movwf	view_log@delay2^0,c
  1613   0017C4                     l3908:
  1614                           
  1615                           ;black_box.c: 607:         char log_event[16];;black_box.c: 608:         log_event[0] = 
      +                          index+48;
  1616   0017C4  5008               	movf	view_log@index^0,w,c
  1617   0017C6  0F30               	addlw	48
  1618   0017C8  6E3E               	movwf	view_log@log_event^0,c
  1619   0017CA                     
  1620                           ;black_box.c: 609:         log_event[1] = ' ';
  1621   0017CA  0E20               	movlw	32
  1622   0017CC  6E3F               	movwf	(view_log@log_event+1)^0,c
  1623   0017CE                     
  1624                           ;black_box.c: 610:         log_event[2] = data[0];
  1625   0017CE  C1AE  F040         	movff	_data,view_log@log_event+2
  1626   0017D2                     
  1627                           ;black_box.c: 611:         log_event[3] = data[1];
  1628   0017D2  C1AF  F041         	movff	_data+1,view_log@log_event+3
  1629   0017D6                     
  1630                           ;black_box.c: 612:         log_event[4] = ':';
  1631   0017D6  0E3A               	movlw	58
  1632   0017D8  6E42               	movwf	(view_log@log_event+4)^0,c
  1633   0017DA                     
  1634                           ;black_box.c: 613:         log_event[5] = data[2];
  1635   0017DA  C1B0  F043         	movff	_data+2,view_log@log_event+5
  1636   0017DE                     
  1637                           ;black_box.c: 614:         log_event[6] = data[3];
  1638   0017DE  C1B1  F044         	movff	_data+3,view_log@log_event+6
  1639   0017E2                     
  1640                           ;black_box.c: 615:         log_event[7] = ':';
  1641   0017E2  0E3A               	movlw	58
  1642   0017E4  6E45               	movwf	(view_log@log_event+7)^0,c
  1643   0017E6                     
  1644                           ;black_box.c: 616:         log_event[8] = data[4];
  1645   0017E6  C1B2  F046         	movff	_data+4,view_log@log_event+8
  1646   0017EA                     
  1647                           ;black_box.c: 617:         log_event[9] = data[5];
  1648   0017EA  C1B3  F047         	movff	_data+5,view_log@log_event+9
  1649   0017EE                     
  1650                           ;black_box.c: 618:         log_event[10] = ' ';
  1651   0017EE  0E20               	movlw	32
  1652   0017F0  6E48               	movwf	(view_log@log_event+10)^0,c
  1653   0017F2                     
  1654                           ;black_box.c: 619:         log_event[11] = data[6];
  1655   0017F2  C1B4  F049         	movff	_data+6,view_log@log_event+11
  1656   0017F6                     
  1657                           ;black_box.c: 620:         log_event[12] = data[7];
  1658   0017F6  C1B5  F04A         	movff	_data+7,view_log@log_event+12
  1659   0017FA                     
  1660                           ;black_box.c: 621:         log_event[13] = ' ';
  1661   0017FA  0E20               	movlw	32
  1662   0017FC  6E4B               	movwf	(view_log@log_event+13)^0,c
  1663   0017FE                     
  1664                           ;black_box.c: 622:         log_event[14] = data[8];
  1665   0017FE  C1B6  F04C         	movff	_data+8,view_log@log_event+14
  1666   001802                     
  1667                           ;black_box.c: 623:         log_event[15] = data[9];
  1668   001802  C1B7  F04D         	movff	_data+9,view_log@log_event+15
  1669   001806                     
  1670                           ;black_box.c: 624:         log_event[16] = '\0';
  1671   001806  0E00               	movlw	0
  1672   001808  6E4E               	movwf	(view_log@log_event+16)^0,c
  1673   00180A                     
  1674                           ;black_box.c: 625:         clcd_print(log_event,(0xC0 + (0)));
  1675   00180A  0E3E               	movlw	low view_log@log_event
  1676   00180C  6E34               	movwf	clcd_print@data^0,c
  1677   00180E  6A35               	clrf	(clcd_print@data+1)^0,c
  1678   001810  0EC0               	movlw	192
  1679   001812  6E36               	movwf	clcd_print@addr^0,c
  1680   001814  EC56  F011         	call	_clcd_print	;wreg free
  1681                           
  1682                           ;black_box.c: 626:     }
  1683   001818  EF29  F00C         	goto	l361
  1684   00181C                     l3944:
  1685                           
  1686                           ;black_box.c: 628:     {;black_box.c: 629:         clcd_print("Empty Log",(0x80 + (0)));
  1687   00181C  0EA3               	movlw	low STR_42
  1688   00181E  6E34               	movwf	clcd_print@data^0,c
  1689   001820  0E2F               	movlw	high STR_42
  1690   001822  6E35               	movwf	(clcd_print@data+1)^0,c
  1691   001824  0E80               	movlw	128
  1692   001826  6E36               	movwf	clcd_print@addr^0,c
  1693   001828  EC56  F011         	call	_clcd_print	;wreg free
  1694   00182C                     
  1695                           ;black_box.c: 630:         _delay((unsigned long)((1500)*(20000000/4000.0)));
  1696   00182C  0E27               	movlw	39
  1697   00182E  6E3D               	movwf	(??_view_log+1)^0,c
  1698   001830  0E0D               	movlw	13
  1699   001832  6E3C               	movwf	??_view_log^0,c
  1700   001834  0E26               	movlw	38
  1701   001836                     u3347:
  1702   001836  2EE8               	decfsz	wreg,f,c
  1703   001838  D7FE               	bra	u3347
  1704   00183A  2E3C               	decfsz	??_view_log^0,f,c
  1705   00183C  D7FC               	bra	u3347
  1706   00183E  2E3D               	decfsz	(??_view_log+1)^0,f,c
  1707   001840  D7FA               	bra	u3347
  1708   001842  D000               	nop2	
  1709   001844                     
  1710                           ;black_box.c: 631:         clcd_write(0x01, 0);
  1711   001844  0E00               	movlw	0
  1712   001846  6E32               	movwf	clcd_write@control_bit^0,c
  1713   001848  0E01               	movlw	1
  1714   00184A  EC35  F013         	call	_clcd_write
  1715   00184E  EF66  F00B         	goto	l3876
  1716   001852                     l361:
  1717   001852  0012               	return		;funcret
  1718   001854                     __end_of_view_log:
  1719                           	callstack 0
  1720                           
  1721 ;; *************** function _set_time *****************
  1722 ;; Defined at:
  1723 ;;		line 427 in file "black_box.c"
  1724 ;; Parameters:    Size  Location     Type
  1725 ;;		None
  1726 ;; Auto vars:     Size  Location     Type
  1727 ;;		None
  1728 ;; Return value:  Size  Location     Type
  1729 ;;                  1    wreg      void 
  1730 ;; Registers used:
  1731 ;;		wreg, fsr0l, fsr0h, status,2, status,0, tblptrl, tblptrh, tblptru, prodl, prodh, cstack
  1732 ;; Tracked objects:
  1733 ;;		On entry : 0/0
  1734 ;;		On exit  : 0/0
  1735 ;;		Unchanged: 0/0
  1736 ;; Data sizes:     COMRAM   BANK0   BANK1   BANK2   BANK3   BANK4   BANK5
  1737 ;;      Params:         0       0       0       0       0       0       0
  1738 ;;      Locals:         0       0       0       0       0       0       0
  1739 ;;      Temps:          2       0       0       0       0       0       0
  1740 ;;      Totals:         2       0       0       0       0       0       0
  1741 ;;Total ram usage:        2 bytes
  1742 ;; Hardware stack levels used: 1
  1743 ;; Hardware stack levels required when called: 4
  1744 ;; This function calls:
  1745 ;;		___lwdiv
  1746 ;;		___lwmod
  1747 ;;		_clcd_print
  1748 ;;		_clcd_putch
  1749 ;;		_clcd_write
  1750 ;;		_write_ds1307
  1751 ;; This function is called by:
  1752 ;;		_main
  1753 ;; This function uses a non-reentrant model
  1754 ;;
  1755                           
  1756                           	psect	text2
  1757   000012                     __ptext2:
  1758                           	callstack 0
  1759   000012                     _set_time:
  1760                           	callstack 26
  1761   000012                     
  1762                           ;black_box.c: 429:     static short flag=0,feild_change=0;;black_box.c: 430:      static
      +                           unsigned int delay1=0, delay2=0;;black_box.c: 431:      GIE=1;
  1763   000012  8EF2               	bsf	4082,7,c	;volatile
  1764   000014                     
  1765                           ;black_box.c: 432:     clcd_print("HH:MM:SS",(0x80 + (4)));
  1766   000014  0EC1               	movlw	low STR_40
  1767   000016  6E34               	movwf	clcd_print@data^0,c
  1768   000018  0E2F               	movlw	high STR_40
  1769   00001A  6E35               	movwf	(clcd_print@data+1)^0,c
  1770   00001C  0E84               	movlw	132
  1771   00001E  6E36               	movwf	clcd_print@addr^0,c
  1772   000020  EC56  F011         	call	_clcd_print	;wreg free
  1773   000024                     
  1774                           ;black_box.c: 433:     if(flag == 0)
  1775   000024  0100               	movlb	0	; () banked
  1776   000026  51C8               	movf	set_time@flag& (0+255),w,b
  1777   000028  11C9               	iorwf	(set_time@flag+1)& (0+255),w,b
  1778   00002A  A4D8               	btfss	status,2,c
  1779   00002C  EF1A  F000         	goto	u2721
  1780   000030  EF1C  F000         	goto	u2720
  1781   000034                     u2721:
  1782   000034  EF50  F000         	goto	l3964
  1783   000038                     u2720:
  1784   000038                     
  1785                           ; BSR set to: 0
  1786                           ;black_box.c: 434:     {;black_box.c: 435:         hr = (time[0] - '0')*10 + (time[1] - 
      +                          '0');
  1787   000038  5192               	movf	_time& (0+255),w,b
  1788   00003A  0D0A               	mullw	10
  1789   00003C  CFF3 F042          	movff	prodl,??_set_time
  1790   000040  CFF4 F043          	movff	prodh,??_set_time+1
  1791   000044  5193               	movf	(_time+1)& (0+255),w,b
  1792   000046  2642               	addwf	??_set_time^0,f,c
  1793   000048  0E00               	movlw	0
  1794   00004A  2243               	addwfc	(??_set_time+1)^0,f,c
  1795   00004C  0EF0               	movlw	240
  1796   00004E  2442               	addwf	??_set_time^0,w,c
  1797   000050  6E2C               	movwf	_hr^0,c
  1798   000052  0EFD               	movlw	253
  1799   000054  2043               	addwfc	(??_set_time+1)^0,w,c
  1800   000056  6E2D               	movwf	(_hr+1)^0,c
  1801                           
  1802                           ;black_box.c: 436:         min = (time[3] - '0')*10 + (time[4] - '0');
  1803   000058  5195               	movf	(_time+3)& (0+255),w,b
  1804   00005A  0D0A               	mullw	10
  1805   00005C  CFF3 F042          	movff	prodl,??_set_time
  1806   000060  CFF4 F043          	movff	prodh,??_set_time+1
  1807   000064  5196               	movf	(_time+4)& (0+255),w,b
  1808   000066  2642               	addwf	??_set_time^0,f,c
  1809   000068  0E00               	movlw	0
  1810   00006A  2243               	addwfc	(??_set_time+1)^0,f,c
  1811   00006C  0EF0               	movlw	240
  1812   00006E  2442               	addwf	??_set_time^0,w,c
  1813   000070  6E2E               	movwf	_min^0,c
  1814   000072  0EFD               	movlw	253
  1815   000074  2043               	addwfc	(??_set_time+1)^0,w,c
  1816   000076  6E2F               	movwf	(_min+1)^0,c
  1817                           
  1818                           ;black_box.c: 437:         sec = (time[6] - '0')*10 + (time[7] - '0');
  1819   000078  5198               	movf	(_time+6)& (0+255),w,b
  1820   00007A  0D0A               	mullw	10
  1821   00007C  CFF3 F042          	movff	prodl,??_set_time
  1822   000080  CFF4 F043          	movff	prodh,??_set_time+1
  1823   000084  5199               	movf	(_time+7)& (0+255),w,b
  1824   000086  2642               	addwf	??_set_time^0,f,c
  1825   000088  0E00               	movlw	0
  1826   00008A  2243               	addwfc	(??_set_time+1)^0,f,c
  1827   00008C  0EF0               	movlw	240
  1828   00008E  2442               	addwf	??_set_time^0,w,c
  1829   000090  6E30               	movwf	_sec^0,c
  1830   000092  0EFD               	movlw	253
  1831   000094  2043               	addwfc	(??_set_time+1)^0,w,c
  1832   000096  6E31               	movwf	(_sec+1)^0,c
  1833   000098                     
  1834                           ; BSR set to: 0
  1835                           ;black_box.c: 438:     flag=1;
  1836   000098  0E00               	movlw	0
  1837   00009A  6FC9               	movwf	(set_time@flag+1)& (0+255),b
  1838   00009C  0E01               	movlw	1
  1839   00009E  6FC8               	movwf	set_time@flag& (0+255),b
  1840   0000A0                     l3964:
  1841                           
  1842                           ; BSR set to: 0
  1843                           ;black_box.c: 440:     clcd_putch((hr / 10) + 48, (0xC0 + (4)));
  1844   0000A0  0EC4               	movlw	196
  1845   0000A2  6E40               	movwf	clcd_putch@addr^0,c
  1846   0000A4  C02C  F038         	movff	_hr,___lwdiv@dividend
  1847   0000A8  C02D  F039         	movff	_hr+1,___lwdiv@dividend+1
  1848   0000AC  0E00               	movlw	0
  1849   0000AE  6E3B               	movwf	(___lwdiv@divisor+1)^0,c
  1850   0000B0  0E0A               	movlw	10
  1851   0000B2  6E3A               	movwf	___lwdiv@divisor^0,c
  1852   0000B4  ECAA  F010         	call	___lwdiv	;wreg free
  1853   0000B8  5038               	movf	?___lwdiv^0,w,c
  1854   0000BA  0F30               	addlw	48
  1855   0000BC  ECCF  F013         	call	_clcd_putch
  1856   0000C0                     
  1857                           ;black_box.c: 441:     clcd_putch((hr % 10) + 48, (0xC0 + (5)));
  1858   0000C0  0EC5               	movlw	197
  1859   0000C2  6E40               	movwf	clcd_putch@addr^0,c
  1860   0000C4  C02C  F032         	movff	_hr,___lwmod@dividend
  1861   0000C8  C02D  F033         	movff	_hr+1,___lwmod@dividend+1
  1862   0000CC  0E00               	movlw	0
  1863   0000CE  6E35               	movwf	(___lwmod@divisor+1)^0,c
  1864   0000D0  0E0A               	movlw	10
  1865   0000D2  6E34               	movwf	___lwmod@divisor^0,c
  1866   0000D4  EC8C  F011         	call	___lwmod	;wreg free
  1867   0000D8  5032               	movf	?___lwmod^0,w,c
  1868   0000DA  0F30               	addlw	48
  1869   0000DC  ECCF  F013         	call	_clcd_putch
  1870   0000E0                     
  1871                           ;black_box.c: 442:     clcd_putch(':', (0xC0 + (6)));
  1872   0000E0  0EC6               	movlw	198
  1873   0000E2  6E40               	movwf	clcd_putch@addr^0,c
  1874   0000E4  0E3A               	movlw	58
  1875   0000E6  ECCF  F013         	call	_clcd_putch
  1876   0000EA                     
  1877                           ;black_box.c: 443:     clcd_putch((min / 10) + 48, (0xC0 + (7)));
  1878   0000EA  0EC7               	movlw	199
  1879   0000EC  6E40               	movwf	clcd_putch@addr^0,c
  1880   0000EE  C02E  F038         	movff	_min,___lwdiv@dividend
  1881   0000F2  C02F  F039         	movff	_min+1,___lwdiv@dividend+1
  1882   0000F6  0E00               	movlw	0
  1883   0000F8  6E3B               	movwf	(___lwdiv@divisor+1)^0,c
  1884   0000FA  0E0A               	movlw	10
  1885   0000FC  6E3A               	movwf	___lwdiv@divisor^0,c
  1886   0000FE  ECAA  F010         	call	___lwdiv	;wreg free
  1887   000102  5038               	movf	?___lwdiv^0,w,c
  1888   000104  0F30               	addlw	48
  1889   000106  ECCF  F013         	call	_clcd_putch
  1890   00010A                     
  1891                           ;black_box.c: 444:     clcd_putch((min % 10) + 48, (0xC0 + (8)));
  1892   00010A  0EC8               	movlw	200
  1893   00010C  6E40               	movwf	clcd_putch@addr^0,c
  1894   00010E  C02E  F032         	movff	_min,___lwmod@dividend
  1895   000112  C02F  F033         	movff	_min+1,___lwmod@dividend+1
  1896   000116  0E00               	movlw	0
  1897   000118  6E35               	movwf	(___lwmod@divisor+1)^0,c
  1898   00011A  0E0A               	movlw	10
  1899   00011C  6E34               	movwf	___lwmod@divisor^0,c
  1900   00011E  EC8C  F011         	call	___lwmod	;wreg free
  1901   000122  5032               	movf	?___lwmod^0,w,c
  1902   000124  0F30               	addlw	48
  1903   000126  ECCF  F013         	call	_clcd_putch
  1904   00012A                     
  1905                           ;black_box.c: 445:     clcd_putch(':', (0xC0 + (9)));
  1906   00012A  0EC9               	movlw	201
  1907   00012C  6E40               	movwf	clcd_putch@addr^0,c
  1908   00012E  0E3A               	movlw	58
  1909   000130  ECCF  F013         	call	_clcd_putch
  1910   000134                     
  1911                           ;black_box.c: 446:     clcd_putch((sec / 10) + 48, (0xC0 + (10)));
  1912   000134  0ECA               	movlw	202
  1913   000136  6E40               	movwf	clcd_putch@addr^0,c
  1914   000138  C030  F038         	movff	_sec,___lwdiv@dividend
  1915   00013C  C031  F039         	movff	_sec+1,___lwdiv@dividend+1
  1916   000140  0E00               	movlw	0
  1917   000142  6E3B               	movwf	(___lwdiv@divisor+1)^0,c
  1918   000144  0E0A               	movlw	10
  1919   000146  6E3A               	movwf	___lwdiv@divisor^0,c
  1920   000148  ECAA  F010         	call	___lwdiv	;wreg free
  1921   00014C  5038               	movf	?___lwdiv^0,w,c
  1922   00014E  0F30               	addlw	48
  1923   000150  ECCF  F013         	call	_clcd_putch
  1924   000154                     
  1925                           ;black_box.c: 447:     clcd_putch((sec % 10) + 48, (0xC0 + (11)));
  1926   000154  0ECB               	movlw	203
  1927   000156  6E40               	movwf	clcd_putch@addr^0,c
  1928   000158  C030  F032         	movff	_sec,___lwmod@dividend
  1929   00015C  C031  F033         	movff	_sec+1,___lwmod@dividend+1
  1930   000160  0E00               	movlw	0
  1931   000162  6E35               	movwf	(___lwmod@divisor+1)^0,c
  1932   000164  0E0A               	movlw	10
  1933   000166  6E34               	movwf	___lwmod@divisor^0,c
  1934   000168  EC8C  F011         	call	___lwmod	;wreg free
  1935   00016C  5032               	movf	?___lwmod^0,w,c
  1936   00016E  0F30               	addlw	48
  1937   000170  ECCF  F013         	call	_clcd_putch
  1938   000174                     
  1939                           ;black_box.c: 450:      if (key == (char*)11 )
  1940   000174  0E0B               	movlw	11
  1941   000176  1828               	xorwf	_key^0,w,c
  1942   000178  1029               	iorwf	(_key+1)^0,w,c
  1943   00017A  A4D8               	btfss	status,2,c
  1944   00017C  EFC2  F000         	goto	u2731
  1945   000180  EFC4  F000         	goto	u2730
  1946   000184                     u2731:
  1947   000184  EF65  F001         	goto	l4002
  1948   000188                     u2730:
  1949   000188                     
  1950                           ;black_box.c: 451:     {;black_box.c: 452:         if(++delay1 >= 500 )
  1951   000188  4A10               	infsnz	set_time@delay1^0,f,c
  1952   00018A  2A11               	incf	(set_time@delay1+1)^0,f,c
  1953   00018C  0EF4               	movlw	244
  1954   00018E  5C10               	subwf	set_time@delay1^0,w,c
  1955   000190  0E01               	movlw	1
  1956   000192  5811               	subwfb	(set_time@delay1+1)^0,w,c
  1957   000194  A0D8               	btfss	status,0,c
  1958   000196  EFCF  F000         	goto	u2741
  1959   00019A  EFD1  F000         	goto	u2740
  1960   00019E                     u2741:
  1961   00019E  EF93  F001         	goto	l4014
  1962   0001A2                     u2740:
  1963   0001A2                     
  1964                           ;black_box.c: 453:         {;black_box.c: 454:             time[0] = ((hr/10) + 48);
  1965   0001A2  C02C  F038         	movff	_hr,___lwdiv@dividend
  1966   0001A6  C02D  F039         	movff	_hr+1,___lwdiv@dividend+1
  1967   0001AA  0E00               	movlw	0
  1968   0001AC  6E3B               	movwf	(___lwdiv@divisor+1)^0,c
  1969   0001AE  0E0A               	movlw	10
  1970   0001B0  6E3A               	movwf	___lwdiv@divisor^0,c
  1971   0001B2  ECAA  F010         	call	___lwdiv	;wreg free
  1972   0001B6  5038               	movf	?___lwdiv^0,w,c
  1973   0001B8  0F30               	addlw	48
  1974   0001BA  0100               	movlb	0	; () banked
  1975   0001BC  6F92               	movwf	_time& (0+255),b
  1976                           
  1977                           ;black_box.c: 455:             time[1] = ((hr%10) + 48);
  1978   0001BE  C02C  F032         	movff	_hr,___lwmod@dividend
  1979   0001C2  C02D  F033         	movff	_hr+1,___lwmod@dividend+1
  1980   0001C6  0E00               	movlw	0
  1981   0001C8  6E35               	movwf	(___lwmod@divisor+1)^0,c
  1982   0001CA  0E0A               	movlw	10
  1983   0001CC  6E34               	movwf	___lwmod@divisor^0,c
  1984   0001CE  EC8C  F011         	call	___lwmod	;wreg free
  1985   0001D2  5032               	movf	?___lwmod^0,w,c
  1986   0001D4  0F30               	addlw	48
  1987   0001D6  0100               	movlb	0	; () banked
  1988   0001D8  6F93               	movwf	(_time+1)& (0+255),b
  1989                           
  1990                           ;black_box.c: 456:             time[3] = ((min/10) + 48);
  1991   0001DA  C02E  F038         	movff	_min,___lwdiv@dividend
  1992   0001DE  C02F  F039         	movff	_min+1,___lwdiv@dividend+1
  1993   0001E2  0E00               	movlw	0
  1994   0001E4  6E3B               	movwf	(___lwdiv@divisor+1)^0,c
  1995   0001E6  0E0A               	movlw	10
  1996   0001E8  6E3A               	movwf	___lwdiv@divisor^0,c
  1997   0001EA  ECAA  F010         	call	___lwdiv	;wreg free
  1998   0001EE  5038               	movf	?___lwdiv^0,w,c
  1999   0001F0  0F30               	addlw	48
  2000   0001F2  0100               	movlb	0	; () banked
  2001   0001F4  6F95               	movwf	(_time+3)& (0+255),b
  2002                           
  2003                           ;black_box.c: 457:             time[4] = ((min % 10) + 48);
  2004   0001F6  C02E  F032         	movff	_min,___lwmod@dividend
  2005   0001FA  C02F  F033         	movff	_min+1,___lwmod@dividend+1
  2006   0001FE  0E00               	movlw	0
  2007   000200  6E35               	movwf	(___lwmod@divisor+1)^0,c
  2008   000202  0E0A               	movlw	10
  2009   000204  6E34               	movwf	___lwmod@divisor^0,c
  2010   000206  EC8C  F011         	call	___lwmod	;wreg free
  2011   00020A  5032               	movf	?___lwmod^0,w,c
  2012   00020C  0F30               	addlw	48
  2013   00020E  0100               	movlb	0	; () banked
  2014   000210  6F96               	movwf	(_time+4)& (0+255),b
  2015                           
  2016                           ;black_box.c: 458:             time[6] = ((sec/10) + 48);
  2017   000212  C030  F038         	movff	_sec,___lwdiv@dividend
  2018   000216  C031  F039         	movff	_sec+1,___lwdiv@dividend+1
  2019   00021A  0E00               	movlw	0
  2020   00021C  6E3B               	movwf	(___lwdiv@divisor+1)^0,c
  2021   00021E  0E0A               	movlw	10
  2022   000220  6E3A               	movwf	___lwdiv@divisor^0,c
  2023   000222  ECAA  F010         	call	___lwdiv	;wreg free
  2024   000226  5038               	movf	?___lwdiv^0,w,c
  2025   000228  0F30               	addlw	48
  2026   00022A  0100               	movlb	0	; () banked
  2027   00022C  6F98               	movwf	(_time+6)& (0+255),b
  2028                           
  2029                           ;black_box.c: 459:             time[7] = ((sec%10) + 48);
  2030   00022E  C030  F032         	movff	_sec,___lwmod@dividend
  2031   000232  C031  F033         	movff	_sec+1,___lwmod@dividend+1
  2032   000236  0E00               	movlw	0
  2033   000238  6E35               	movwf	(___lwmod@divisor+1)^0,c
  2034   00023A  0E0A               	movlw	10
  2035   00023C  6E34               	movwf	___lwmod@divisor^0,c
  2036   00023E  EC8C  F011         	call	___lwmod	;wreg free
  2037   000242  5032               	movf	?___lwmod^0,w,c
  2038   000244  0F30               	addlw	48
  2039   000246  0100               	movlb	0	; () banked
  2040   000248  6F99               	movwf	(_time+7)& (0+255),b
  2041                           
  2042                           ;black_box.c: 460:             write_ds1307(0x02,(time[0]<<4)| (time[1]&0x0f));
  2043   00024A  C093  F042         	movff	_time+1,??_set_time
  2044   00024E  0E0F               	movlw	15
  2045   000250  1642               	andwf	??_set_time^0,f,c
  2046   000252  3992               	swapf	_time& (0+255),w,b
  2047   000254  0BF0               	andlw	240
  2048   000256  1042               	iorwf	??_set_time^0,w,c
  2049   000258  6E33               	movwf	write_ds1307@data^0,c
  2050   00025A  0E02               	movlw	2
  2051   00025C  ECA4  F013         	call	_write_ds1307
  2052                           
  2053                           ;black_box.c: 461:             write_ds1307(0x01,(time[3]<<4)| (time[4]&0x0f));
  2054   000260  C096  F042         	movff	_time+4,??_set_time
  2055   000264  0E0F               	movlw	15
  2056   000266  1642               	andwf	??_set_time^0,f,c
  2057   000268  0100               	movlb	0	; () banked
  2058   00026A  3995               	swapf	(_time+3)& (0+255),w,b
  2059   00026C  0BF0               	andlw	240
  2060   00026E  1042               	iorwf	??_set_time^0,w,c
  2061   000270  6E33               	movwf	write_ds1307@data^0,c
  2062   000272  0E01               	movlw	1
  2063   000274  ECA4  F013         	call	_write_ds1307
  2064                           
  2065                           ;black_box.c: 462:             write_ds1307(0x00,(time[6]<<4)| (time[7]&0x0f));
  2066   000278  C099  F042         	movff	_time+7,??_set_time
  2067   00027C  0E0F               	movlw	15
  2068   00027E  1642               	andwf	??_set_time^0,f,c
  2069   000280  0100               	movlb	0	; () banked
  2070   000282  3998               	swapf	(_time+6)& (0+255),w,b
  2071   000284  0BF0               	andlw	240
  2072   000286  1042               	iorwf	??_set_time^0,w,c
  2073   000288  6E33               	movwf	write_ds1307@data^0,c
  2074   00028A  0E00               	movlw	0
  2075   00028C  ECA4  F013         	call	_write_ds1307
  2076   000290                     
  2077                           ;black_box.c: 463:             flag=0;feild_change=0;delay1=0; delay2=0;GIE=0;
  2078   000290  0E00               	movlw	0
  2079   000292  0100               	movlb	0	; () banked
  2080   000294  6FC9               	movwf	(set_time@flag+1)& (0+255),b
  2081   000296  0E00               	movlw	0
  2082   000298  6FC8               	movwf	set_time@flag& (0+255),b
  2083   00029A                     
  2084                           ; BSR set to: 0
  2085   00029A  0E00               	movlw	0
  2086   00029C  6E13               	movwf	(set_time@feild_change+1)^0,c
  2087   00029E  0E00               	movlw	0
  2088   0002A0  6E12               	movwf	set_time@feild_change^0,c
  2089   0002A2                     
  2090                           ; BSR set to: 0
  2091   0002A2  0E00               	movlw	0
  2092   0002A4  6E11               	movwf	(set_time@delay1+1)^0,c
  2093   0002A6  0E00               	movlw	0
  2094   0002A8  6E10               	movwf	set_time@delay1^0,c
  2095   0002AA                     
  2096                           ; BSR set to: 0
  2097   0002AA  0E00               	movlw	0
  2098   0002AC  6E0F               	movwf	(set_time@delay2+1)^0,c
  2099   0002AE  0E00               	movlw	0
  2100   0002B0  6E0E               	movwf	set_time@delay2^0,c
  2101   0002B2                     
  2102                           ; BSR set to: 0
  2103   0002B2  9EF2               	bcf	4082,7,c	;volatile
  2104   0002B4                     
  2105                           ; BSR set to: 0
  2106                           ;black_box.c: 464:             clcd_write(0x01, 0);
  2107   0002B4  0E00               	movlw	0
  2108   0002B6  6E32               	movwf	clcd_write@control_bit^0,c
  2109   0002B8  0E01               	movlw	1
  2110   0002BA  EC35  F013         	call	_clcd_write
  2111   0002BE                     
  2112                           ;black_box.c: 465:             main_flag=1;
  2113   0002BE  0E00               	movlw	0
  2114   0002C0  6E27               	movwf	(_main_flag+1)^0,c
  2115   0002C2  0E01               	movlw	1
  2116   0002C4  6E26               	movwf	_main_flag^0,c
  2117   0002C6  EFED  F002         	goto	l315
  2118   0002CA                     l4002:
  2119   0002CA  5010               	movf	set_time@delay1^0,w,c
  2120   0002CC  1011               	iorwf	(set_time@delay1+1)^0,w,c
  2121   0002CE  B4D8               	btfsc	status,2,c
  2122   0002D0  EF6C  F001         	goto	u2751
  2123   0002D4  EF6E  F001         	goto	u2750
  2124   0002D8                     u2751:
  2125   0002D8  EF8F  F001         	goto	l319
  2126   0002DC                     u2750:
  2127   0002DC  0EF4               	movlw	244
  2128   0002DE  5C10               	subwf	set_time@delay1^0,w,c
  2129   0002E0  0E01               	movlw	1
  2130   0002E2  5811               	subwfb	(set_time@delay1+1)^0,w,c
  2131   0002E4  B0D8               	btfsc	status,0,c
  2132   0002E6  EF77  F001         	goto	u2761
  2133   0002EA  EF79  F001         	goto	u2760
  2134   0002EE                     u2761:
  2135   0002EE  EF8F  F001         	goto	l319
  2136   0002F2                     u2760:
  2137   0002F2                     
  2138                           ;black_box.c: 470:     {;black_box.c: 471:         if (feild_change < 2)
  2139   0002F2  BE13               	btfsc	(set_time@feild_change+1)^0,7,c
  2140   0002F4  EF87  F001         	goto	u2770
  2141   0002F8  5013               	movf	(set_time@feild_change+1)^0,w,c
  2142   0002FA  E107               	bnz	u2771
  2143   0002FC  0E02               	movlw	2
  2144   0002FE  5C12               	subwf	set_time@feild_change^0,w,c
  2145   000300  B0D8               	btfsc	status,0,c
  2146   000302  EF85  F001         	goto	u2771
  2147   000306  EF87  F001         	goto	u2770
  2148   00030A                     u2771:
  2149   00030A  EF8B  F001         	goto	l4010
  2150   00030E                     u2770:
  2151   00030E                     
  2152                           ;black_box.c: 472:             feild_change++;
  2153   00030E  4A12               	infsnz	set_time@feild_change^0,f,c
  2154   000310  2A13               	incf	(set_time@feild_change+1)^0,f,c
  2155   000312  EF8F  F001         	goto	l319
  2156   000316                     l4010:
  2157                           
  2158                           ;black_box.c: 474:             feild_change = 0;
  2159   000316  0E00               	movlw	0
  2160   000318  6E13               	movwf	(set_time@feild_change+1)^0,c
  2161   00031A  0E00               	movlw	0
  2162   00031C  6E12               	movwf	set_time@feild_change^0,c
  2163   00031E                     l319:
  2164                           
  2165                           ;black_box.c: 475:        delay1=0;
  2166   00031E  0E00               	movlw	0
  2167   000320  6E11               	movwf	(set_time@delay1+1)^0,c
  2168   000322  0E00               	movlw	0
  2169   000324  6E10               	movwf	set_time@delay1^0,c
  2170   000326                     l4014:
  2171                           
  2172                           ;black_box.c: 479:     if (key == (char*)12 )
  2173   000326  0E0C               	movlw	12
  2174   000328  1828               	xorwf	_key^0,w,c
  2175   00032A  1029               	iorwf	(_key+1)^0,w,c
  2176   00032C  A4D8               	btfss	status,2,c
  2177   00032E  EF9B  F001         	goto	u2781
  2178   000332  EF9D  F001         	goto	u2780
  2179   000336                     u2781:
  2180   000336  EFC7  F001         	goto	l4028
  2181   00033A                     u2780:
  2182   00033A                     
  2183                           ;black_box.c: 480:     {;black_box.c: 481:         if(++delay2 >= 500)
  2184   00033A  4A0E               	infsnz	set_time@delay2^0,f,c
  2185   00033C  2A0F               	incf	(set_time@delay2+1)^0,f,c
  2186   00033E  0EF4               	movlw	244
  2187   000340  5C0E               	subwf	set_time@delay2^0,w,c
  2188   000342  0E01               	movlw	1
  2189   000344  580F               	subwfb	(set_time@delay2+1)^0,w,c
  2190   000346  A0D8               	btfss	status,0,c
  2191   000348  EFA8  F001         	goto	u2791
  2192   00034C  EFAA  F001         	goto	u2790
  2193   000350                     u2791:
  2194   000350  EF2E  F002         	goto	l4052
  2195   000354                     u2790:
  2196   000354                     
  2197                           ;black_box.c: 482:         {;black_box.c: 483:             flag=0;feild_change=0;delay1=
      +                          0; delay2=0;GIE=0;
  2198   000354  0E00               	movlw	0
  2199   000356  0100               	movlb	0	; () banked
  2200   000358  6FC9               	movwf	(set_time@flag+1)& (0+255),b
  2201   00035A  0E00               	movlw	0
  2202   00035C  6FC8               	movwf	set_time@flag& (0+255),b
  2203   00035E  0E00               	movlw	0
  2204   000360  6E13               	movwf	(set_time@feild_change+1)^0,c
  2205   000362  0E00               	movlw	0
  2206   000364  6E12               	movwf	set_time@feild_change^0,c
  2207   000366  0E00               	movlw	0
  2208   000368  6E11               	movwf	(set_time@delay1+1)^0,c
  2209   00036A  0E00               	movlw	0
  2210   00036C  6E10               	movwf	set_time@delay1^0,c
  2211   00036E  0E00               	movlw	0
  2212   000370  6E0F               	movwf	(set_time@delay2+1)^0,c
  2213   000372  0E00               	movlw	0
  2214   000374  6E0E               	movwf	set_time@delay2^0,c
  2215   000376                     
  2216                           ; BSR set to: 0
  2217   000376  9EF2               	bcf	4082,7,c	;volatile
  2218   000378                     
  2219                           ; BSR set to: 0
  2220                           ;black_box.c: 484:             clcd_write(0x01, 0);
  2221   000378  0E00               	movlw	0
  2222   00037A  6E32               	movwf	clcd_write@control_bit^0,c
  2223   00037C  0E01               	movlw	1
  2224   00037E  EC35  F013         	call	_clcd_write
  2225   000382                     
  2226                           ;black_box.c: 485:             main_flag=2;
  2227   000382  0E00               	movlw	0
  2228   000384  6E27               	movwf	(_main_flag+1)^0,c
  2229   000386  0E02               	movlw	2
  2230   000388  6E26               	movwf	_main_flag^0,c
  2231   00038A  EFED  F002         	goto	l315
  2232   00038E                     l4028:
  2233   00038E  500E               	movf	set_time@delay2^0,w,c
  2234   000390  100F               	iorwf	(set_time@delay2+1)^0,w,c
  2235   000392  B4D8               	btfsc	status,2,c
  2236   000394  EFCE  F001         	goto	u2801
  2237   000398  EFD0  F001         	goto	u2800
  2238   00039C                     u2801:
  2239   00039C  EF2A  F002         	goto	l329
  2240   0003A0                     u2800:
  2241   0003A0  0EF4               	movlw	244
  2242   0003A2  5C0E               	subwf	set_time@delay2^0,w,c
  2243   0003A4  0E01               	movlw	1
  2244   0003A6  580F               	subwfb	(set_time@delay2+1)^0,w,c
  2245   0003A8  B0D8               	btfsc	status,0,c
  2246   0003AA  EFD9  F001         	goto	u2811
  2247   0003AE  EFDB  F001         	goto	u2810
  2248   0003B2                     u2811:
  2249   0003B2  EF2A  F002         	goto	l329
  2250   0003B6                     u2810:
  2251   0003B6                     
  2252                           ;black_box.c: 490:     {;black_box.c: 491:         if(feild_change == 0)
  2253   0003B6  5012               	movf	set_time@feild_change^0,w,c
  2254   0003B8  1013               	iorwf	(set_time@feild_change+1)^0,w,c
  2255   0003BA  A4D8               	btfss	status,2,c
  2256   0003BC  EFE2  F001         	goto	u2821
  2257   0003C0  EFE4  F001         	goto	u2820
  2258   0003C4                     u2821:
  2259   0003C4  EFF5  F001         	goto	l4038
  2260   0003C8                     u2820:
  2261   0003C8                     
  2262                           ;black_box.c: 492:         {;black_box.c: 493:             if(++sec > 59)
  2263   0003C8  4A30               	infsnz	_sec^0,f,c
  2264   0003CA  2A31               	incf	(_sec+1)^0,f,c
  2265   0003CC  5031               	movf	(_sec+1)^0,w,c
  2266   0003CE  E109               	bnz	u2830
  2267   0003D0  0E3C               	movlw	60
  2268   0003D2  5C30               	subwf	_sec^0,w,c
  2269   0003D4  A0D8               	btfss	status,0,c
  2270   0003D6  EFEF  F001         	goto	u2831
  2271   0003DA  EFF1  F001         	goto	u2830
  2272   0003DE                     u2831:
  2273   0003DE  EFF5  F001         	goto	l4038
  2274   0003E2                     u2830:
  2275   0003E2                     
  2276                           ;black_box.c: 494:                 sec=0;
  2277   0003E2  0E00               	movlw	0
  2278   0003E4  6E31               	movwf	(_sec+1)^0,c
  2279   0003E6  0E00               	movlw	0
  2280   0003E8  6E30               	movwf	_sec^0,c
  2281   0003EA                     l4038:
  2282                           
  2283                           ;black_box.c: 496:         if(feild_change == 1)
  2284   0003EA  0412               	decf	set_time@feild_change^0,w,c
  2285   0003EC  1013               	iorwf	(set_time@feild_change+1)^0,w,c
  2286   0003EE  A4D8               	btfss	status,2,c
  2287   0003F0  EFFC  F001         	goto	u2841
  2288   0003F4  EFFE  F001         	goto	u2840
  2289   0003F8                     u2841:
  2290   0003F8  EF0F  F002         	goto	l4044
  2291   0003FC                     u2840:
  2292   0003FC                     
  2293                           ;black_box.c: 497:         {;black_box.c: 498:             if(++min > 59)
  2294   0003FC  4A2E               	infsnz	_min^0,f,c
  2295   0003FE  2A2F               	incf	(_min+1)^0,f,c
  2296   000400  502F               	movf	(_min+1)^0,w,c
  2297   000402  E109               	bnz	u2850
  2298   000404  0E3C               	movlw	60
  2299   000406  5C2E               	subwf	_min^0,w,c
  2300   000408  A0D8               	btfss	status,0,c
  2301   00040A  EF09  F002         	goto	u2851
  2302   00040E  EF0B  F002         	goto	u2850
  2303   000412                     u2851:
  2304   000412  EF0F  F002         	goto	l4044
  2305   000416                     u2850:
  2306   000416                     
  2307                           ;black_box.c: 499:                 min=0;
  2308   000416  0E00               	movlw	0
  2309   000418  6E2F               	movwf	(_min+1)^0,c
  2310   00041A  0E00               	movlw	0
  2311   00041C  6E2E               	movwf	_min^0,c
  2312   00041E                     l4044:
  2313                           
  2314                           ;black_box.c: 501:         if(feild_change == 2)
  2315   00041E  0E02               	movlw	2
  2316   000420  1812               	xorwf	set_time@feild_change^0,w,c
  2317   000422  1013               	iorwf	(set_time@feild_change+1)^0,w,c
  2318   000424  A4D8               	btfss	status,2,c
  2319   000426  EF17  F002         	goto	u2861
  2320   00042A  EF19  F002         	goto	u2860
  2321   00042E                     u2861:
  2322   00042E  EF2A  F002         	goto	l329
  2323   000432                     u2860:
  2324   000432                     
  2325                           ;black_box.c: 502:         {;black_box.c: 503:             if (++hr > 23)
  2326   000432  4A2C               	infsnz	_hr^0,f,c
  2327   000434  2A2D               	incf	(_hr+1)^0,f,c
  2328   000436  502D               	movf	(_hr+1)^0,w,c
  2329   000438  E109               	bnz	u2870
  2330   00043A  0E18               	movlw	24
  2331   00043C  5C2C               	subwf	_hr^0,w,c
  2332   00043E  A0D8               	btfss	status,0,c
  2333   000440  EF24  F002         	goto	u2871
  2334   000444  EF26  F002         	goto	u2870
  2335   000448                     u2871:
  2336   000448  EF2A  F002         	goto	l329
  2337   00044C                     u2870:
  2338   00044C                     
  2339                           ;black_box.c: 504:                 hr=0;
  2340   00044C  0E00               	movlw	0
  2341   00044E  6E2D               	movwf	(_hr+1)^0,c
  2342   000450  0E00               	movlw	0
  2343   000452  6E2C               	movwf	_hr^0,c
  2344   000454                     l329:
  2345                           
  2346                           ;black_box.c: 507:         delay2=0;
  2347   000454  0E00               	movlw	0
  2348   000456  6E0F               	movwf	(set_time@delay2+1)^0,c
  2349   000458  0E00               	movlw	0
  2350   00045A  6E0E               	movwf	set_time@delay2^0,c
  2351   00045C                     l4052:
  2352                           
  2353                           ;black_box.c: 516:     if(feild_change == 0)
  2354   00045C  5012               	movf	set_time@feild_change^0,w,c
  2355   00045E  1013               	iorwf	(set_time@feild_change+1)^0,w,c
  2356   000460  A4D8               	btfss	status,2,c
  2357   000462  EF35  F002         	goto	u2881
  2358   000466  EF37  F002         	goto	u2880
  2359   00046A                     u2881:
  2360   00046A  EF6E  F002         	goto	l4060
  2361   00046E                     u2880:
  2362   00046E                     
  2363                           ;black_box.c: 517:     {;black_box.c: 518:         if(blink)
  2364   00046E  502A               	movf	_blink^0,w,c
  2365   000470  102B               	iorwf	(_blink+1)^0,w,c
  2366   000472  B4D8               	btfsc	status,2,c
  2367   000474  EF3E  F002         	goto	u2891
  2368   000478  EF40  F002         	goto	u2890
  2369   00047C                     u2891:
  2370   00047C  EF62  F002         	goto	l4058
  2371   000480                     u2890:
  2372   000480                     
  2373                           ;black_box.c: 519:         {;black_box.c: 520:            clcd_putch((sec / 10) + 48, (0
      +                          xC0 + (10)));
  2374   000480  0ECA               	movlw	202
  2375   000482  6E40               	movwf	clcd_putch@addr^0,c
  2376   000484  C030  F038         	movff	_sec,___lwdiv@dividend
  2377   000488  C031  F039         	movff	_sec+1,___lwdiv@dividend+1
  2378   00048C  0E00               	movlw	0
  2379   00048E  6E3B               	movwf	(___lwdiv@divisor+1)^0,c
  2380   000490  0E0A               	movlw	10
  2381   000492  6E3A               	movwf	___lwdiv@divisor^0,c
  2382   000494  ECAA  F010         	call	___lwdiv	;wreg free
  2383   000498  5038               	movf	?___lwdiv^0,w,c
  2384   00049A  0F30               	addlw	48
  2385   00049C  ECCF  F013         	call	_clcd_putch
  2386                           
  2387                           ;black_box.c: 521:            clcd_putch((sec % 10) + 48, (0xC0 + (11)));
  2388   0004A0  0ECB               	movlw	203
  2389   0004A2  6E40               	movwf	clcd_putch@addr^0,c
  2390   0004A4  C030  F032         	movff	_sec,___lwmod@dividend
  2391   0004A8  C031  F033         	movff	_sec+1,___lwmod@dividend+1
  2392   0004AC  0E00               	movlw	0
  2393   0004AE  6E35               	movwf	(___lwmod@divisor+1)^0,c
  2394   0004B0  0E0A               	movlw	10
  2395   0004B2  6E34               	movwf	___lwmod@divisor^0,c
  2396   0004B4  EC8C  F011         	call	___lwmod	;wreg free
  2397   0004B8  5032               	movf	?___lwmod^0,w,c
  2398   0004BA  0F30               	addlw	48
  2399   0004BC  ECCF  F013         	call	_clcd_putch
  2400                           
  2401                           ;black_box.c: 522:         }
  2402   0004C0  EFED  F002         	goto	l315
  2403   0004C4                     l4058:
  2404                           
  2405                           ;black_box.c: 524:         {;black_box.c: 525:            clcd_putch(' ', (0xC0 + (10)))
      +                          ;
  2406   0004C4  0ECA               	movlw	202
  2407   0004C6  6E40               	movwf	clcd_putch@addr^0,c
  2408   0004C8  0E20               	movlw	32
  2409   0004CA  ECCF  F013         	call	_clcd_putch
  2410                           
  2411                           ;black_box.c: 526:            clcd_putch(' ', (0xC0 + (11)));
  2412   0004CE  0ECB               	movlw	203
  2413   0004D0  6E40               	movwf	clcd_putch@addr^0,c
  2414   0004D2  0E20               	movlw	32
  2415   0004D4  ECCF  F013         	call	_clcd_putch
  2416   0004D8  EFED  F002         	goto	l315
  2417   0004DC                     l4060:
  2418   0004DC  0412               	decf	set_time@feild_change^0,w,c
  2419   0004DE  1013               	iorwf	(set_time@feild_change+1)^0,w,c
  2420   0004E0  A4D8               	btfss	status,2,c
  2421   0004E2  EF75  F002         	goto	u2901
  2422   0004E6  EF77  F002         	goto	u2900
  2423   0004EA                     u2901:
  2424   0004EA  EFAE  F002         	goto	l4068
  2425   0004EE                     u2900:
  2426   0004EE                     
  2427                           ;black_box.c: 531:     {;black_box.c: 532:          if(blink)
  2428   0004EE  502A               	movf	_blink^0,w,c
  2429   0004F0  102B               	iorwf	(_blink+1)^0,w,c
  2430   0004F2  B4D8               	btfsc	status,2,c
  2431   0004F4  EF7E  F002         	goto	u2911
  2432   0004F8  EF80  F002         	goto	u2910
  2433   0004FC                     u2911:
  2434   0004FC  EFA2  F002         	goto	l4066
  2435   000500                     u2910:
  2436   000500                     
  2437                           ;black_box.c: 533:         {;black_box.c: 534:             clcd_putch((min / 10) + 48, (
      +                          0xC0 + (7)));
  2438   000500  0EC7               	movlw	199
  2439   000502  6E40               	movwf	clcd_putch@addr^0,c
  2440   000504  C02E  F038         	movff	_min,___lwdiv@dividend
  2441   000508  C02F  F039         	movff	_min+1,___lwdiv@dividend+1
  2442   00050C  0E00               	movlw	0
  2443   00050E  6E3B               	movwf	(___lwdiv@divisor+1)^0,c
  2444   000510  0E0A               	movlw	10
  2445   000512  6E3A               	movwf	___lwdiv@divisor^0,c
  2446   000514  ECAA  F010         	call	___lwdiv	;wreg free
  2447   000518  5038               	movf	?___lwdiv^0,w,c
  2448   00051A  0F30               	addlw	48
  2449   00051C  ECCF  F013         	call	_clcd_putch
  2450                           
  2451                           ;black_box.c: 535:             clcd_putch((min % 10) + 48, (0xC0 + (8)));
  2452   000520  0EC8               	movlw	200
  2453   000522  6E40               	movwf	clcd_putch@addr^0,c
  2454   000524  C02E  F032         	movff	_min,___lwmod@dividend
  2455   000528  C02F  F033         	movff	_min+1,___lwmod@dividend+1
  2456   00052C  0E00               	movlw	0
  2457   00052E  6E35               	movwf	(___lwmod@divisor+1)^0,c
  2458   000530  0E0A               	movlw	10
  2459   000532  6E34               	movwf	___lwmod@divisor^0,c
  2460   000534  EC8C  F011         	call	___lwmod	;wreg free
  2461   000538  5032               	movf	?___lwmod^0,w,c
  2462   00053A  0F30               	addlw	48
  2463   00053C  ECCF  F013         	call	_clcd_putch
  2464                           
  2465                           ;black_box.c: 536:         }
  2466   000540  EFED  F002         	goto	l315
  2467   000544                     l4066:
  2468                           
  2469                           ;black_box.c: 538:         {;black_box.c: 539:            clcd_putch(' ', (0xC0 + (7)));
  2470   000544  0EC7               	movlw	199
  2471   000546  6E40               	movwf	clcd_putch@addr^0,c
  2472   000548  0E20               	movlw	32
  2473   00054A  ECCF  F013         	call	_clcd_putch
  2474                           
  2475                           ;black_box.c: 540:            clcd_putch(' ', (0xC0 + (8)));
  2476   00054E  0EC8               	movlw	200
  2477   000550  6E40               	movwf	clcd_putch@addr^0,c
  2478   000552  0E20               	movlw	32
  2479   000554  ECCF  F013         	call	_clcd_putch
  2480   000558  EFED  F002         	goto	l315
  2481   00055C                     l4068:
  2482   00055C  0E02               	movlw	2
  2483   00055E  1812               	xorwf	set_time@feild_change^0,w,c
  2484   000560  1013               	iorwf	(set_time@feild_change+1)^0,w,c
  2485   000562  A4D8               	btfss	status,2,c
  2486   000564  EFB6  F002         	goto	u2921
  2487   000568  EFB8  F002         	goto	u2920
  2488   00056C                     u2921:
  2489   00056C  EFED  F002         	goto	l315
  2490   000570                     u2920:
  2491   000570                     
  2492                           ;black_box.c: 544:     {;black_box.c: 545:          if(blink)
  2493   000570  502A               	movf	_blink^0,w,c
  2494   000572  102B               	iorwf	(_blink+1)^0,w,c
  2495   000574  B4D8               	btfsc	status,2,c
  2496   000576  EFBF  F002         	goto	u2931
  2497   00057A  EFC1  F002         	goto	u2930
  2498   00057E                     u2931:
  2499   00057E  EFE3  F002         	goto	l4074
  2500   000582                     u2930:
  2501   000582                     
  2502                           ;black_box.c: 546:         {;black_box.c: 547:             clcd_putch((hr / 10) + 48, (0
      +                          xC0 + (4)));
  2503   000582  0EC4               	movlw	196
  2504   000584  6E40               	movwf	clcd_putch@addr^0,c
  2505   000586  C02C  F038         	movff	_hr,___lwdiv@dividend
  2506   00058A  C02D  F039         	movff	_hr+1,___lwdiv@dividend+1
  2507   00058E  0E00               	movlw	0
  2508   000590  6E3B               	movwf	(___lwdiv@divisor+1)^0,c
  2509   000592  0E0A               	movlw	10
  2510   000594  6E3A               	movwf	___lwdiv@divisor^0,c
  2511   000596  ECAA  F010         	call	___lwdiv	;wreg free
  2512   00059A  5038               	movf	?___lwdiv^0,w,c
  2513   00059C  0F30               	addlw	48
  2514   00059E  ECCF  F013         	call	_clcd_putch
  2515                           
  2516                           ;black_box.c: 548:             clcd_putch((hr % 10) + 48, (0xC0 + (5)));
  2517   0005A2  0EC5               	movlw	197
  2518   0005A4  6E40               	movwf	clcd_putch@addr^0,c
  2519   0005A6  C02C  F032         	movff	_hr,___lwmod@dividend
  2520   0005AA  C02D  F033         	movff	_hr+1,___lwmod@dividend+1
  2521   0005AE  0E00               	movlw	0
  2522   0005B0  6E35               	movwf	(___lwmod@divisor+1)^0,c
  2523   0005B2  0E0A               	movlw	10
  2524   0005B4  6E34               	movwf	___lwmod@divisor^0,c
  2525   0005B6  EC8C  F011         	call	___lwmod	;wreg free
  2526   0005BA  5032               	movf	?___lwmod^0,w,c
  2527   0005BC  0F30               	addlw	48
  2528   0005BE  ECCF  F013         	call	_clcd_putch
  2529                           
  2530                           ;black_box.c: 549:         }
  2531   0005C2  EFED  F002         	goto	l315
  2532   0005C6                     l4074:
  2533                           
  2534                           ;black_box.c: 551:         {;black_box.c: 552:            clcd_putch(' ', (0xC0 + (4)));
  2535   0005C6  0EC4               	movlw	196
  2536   0005C8  6E40               	movwf	clcd_putch@addr^0,c
  2537   0005CA  0E20               	movlw	32
  2538   0005CC  ECCF  F013         	call	_clcd_putch
  2539                           
  2540                           ;black_box.c: 553:            clcd_putch(' ', (0xC0 + (5)));
  2541   0005D0  0EC5               	movlw	197
  2542   0005D2  6E40               	movwf	clcd_putch@addr^0,c
  2543   0005D4  0E20               	movlw	32
  2544   0005D6  ECCF  F013         	call	_clcd_putch
  2545   0005DA                     l315:
  2546   0005DA  0012               	return		;funcret
  2547   0005DC                     __end_of_set_time:
  2548                           	callstack 0
  2549                           
  2550 ;; *************** function _read_switches *****************
  2551 ;; Defined at:
  2552 ;;		line 20 in file "marix_keypad_p.c"
  2553 ;; Parameters:    Size  Location     Type
  2554 ;;  detection       1    wreg     unsigned char 
  2555 ;; Auto vars:     Size  Location     Type
  2556 ;;  detection       1    0[COMRAM] unsigned char 
  2557 ;;  key             1    1[COMRAM] unsigned char 
  2558 ;; Return value:  Size  Location     Type
  2559 ;;                  1    wreg      unsigned char 
  2560 ;; Registers used:
  2561 ;;		wreg, status,2, status,0, cstack
  2562 ;; Tracked objects:
  2563 ;;		On entry : 0/0
  2564 ;;		On exit  : 0/0
  2565 ;;		Unchanged: 0/0
  2566 ;; Data sizes:     COMRAM   BANK0   BANK1   BANK2   BANK3   BANK4   BANK5
  2567 ;;      Params:         0       0       0       0       0       0       0
  2568 ;;      Locals:         2       0       0       0       0       0       0
  2569 ;;      Temps:          0       0       0       0       0       0       0
  2570 ;;      Totals:         2       0       0       0       0       0       0
  2571 ;;Total ram usage:        2 bytes
  2572 ;; Hardware stack levels used: 1
  2573 ;; Hardware stack levels required when called: 2
  2574 ;; This function calls:
  2575 ;;		_scan_key
  2576 ;; This function is called by:
  2577 ;;		_main
  2578 ;; This function uses a non-reentrant model
  2579 ;;
  2580                           
  2581                           	psect	text3
  2582   00223A                     __ptext3:
  2583                           	callstack 0
  2584   00223A                     _read_switches:
  2585                           	callstack 28
  2586                           
  2587                           ;incstack = 0
  2588                           ;read_switches@detection stored from wreg
  2589   00223A  6E32               	movwf	read_switches@detection^0,c
  2590   00223C                     
  2591                           ;marix_keypad_p.c: 20: unsigned char read_switches(unsigned char detection);marix_keypad
      +                          _p.c: 21: {;marix_keypad_p.c: 22:     if(detection == 0)
  2592   00223C  5032               	movf	read_switches@detection^0,w,c
  2593   00223E  A4D8               	btfss	status,2,c
  2594   002240  EF24  F011         	goto	u531
  2595   002244  EF26  F011         	goto	u530
  2596   002248                     u531:
  2597   002248  EF2A  F011         	goto	l2192
  2598   00224C                     u530:
  2599   00224C                     
  2600                           ;marix_keypad_p.c: 23:     {;marix_keypad_p.c: 24:         return scan_key();
  2601   00224C  ECDD  F00D         	call	_scan_key	;wreg free
  2602   002250  EF55  F011         	goto	l581
  2603   002254                     l2192:
  2604   002254  0432               	decf	read_switches@detection^0,w,c
  2605   002256  A4D8               	btfss	status,2,c
  2606   002258  EF30  F011         	goto	u541
  2607   00225C  EF32  F011         	goto	u540
  2608   002260                     u541:
  2609   002260  EF55  F011         	goto	l581
  2610   002264                     u540:
  2611   002264                     
  2612                           ;marix_keypad_p.c: 27:     {;marix_keypad_p.c: 28:         unsigned char key =scan_key()
      +                          ;
  2613   002264  ECDD  F00D         	call	_scan_key	;wreg free
  2614   002268  6E33               	movwf	read_switches@key^0,c
  2615   00226A                     
  2616                           ;marix_keypad_p.c: 29:         if( key != 0xFF && once )
  2617   00226A  2833               	incf	read_switches@key^0,w,c
  2618   00226C  B4D8               	btfsc	status,2,c
  2619   00226E  EF3B  F011         	goto	u551
  2620   002272  EF3D  F011         	goto	u550
  2621   002276                     u551:
  2622   002276  EF4A  F011         	goto	l2206
  2623   00227A                     u550:
  2624   00227A  505D               	movf	_once^0,w,c
  2625   00227C  B4D8               	btfsc	status,2,c
  2626   00227E  EF43  F011         	goto	u561
  2627   002282  EF45  F011         	goto	u560
  2628   002286                     u561:
  2629   002286  EF4A  F011         	goto	l2206
  2630   00228A                     u560:
  2631   00228A                     
  2632                           ;marix_keypad_p.c: 30:         {;marix_keypad_p.c: 31:             once = 0;
  2633   00228A  0E00               	movlw	0
  2634   00228C  6E5D               	movwf	_once^0,c
  2635                           
  2636                           ;marix_keypad_p.c: 32:             return key;
  2637   00228E  5033               	movf	read_switches@key^0,w,c
  2638   002290  EF55  F011         	goto	l581
  2639   002294                     l2206:
  2640   002294  2833               	incf	read_switches@key^0,w,c
  2641   002296  A4D8               	btfss	status,2,c
  2642   002298  EF50  F011         	goto	u571
  2643   00229C  EF52  F011         	goto	u570
  2644   0022A0                     u571:
  2645   0022A0  EF54  F011         	goto	l2210
  2646   0022A4                     u570:
  2647   0022A4                     
  2648                           ;marix_keypad_p.c: 35:             once =1;
  2649   0022A4  0E01               	movlw	1
  2650   0022A6  6E5D               	movwf	_once^0,c
  2651   0022A8                     l2210:
  2652                           
  2653                           ;marix_keypad_p.c: 36:         return 0xFF;
  2654   0022A8  0EFF               	movlw	255
  2655   0022AA                     l581:
  2656   0022AA  0012               	return		;funcret
  2657   0022AC                     __end_of_read_switches:
  2658                           	callstack 0
  2659                           
  2660 ;; *************** function _scan_key *****************
  2661 ;; Defined at:
  2662 ;;		line 40 in file "marix_keypad_p.c"
  2663 ;; Parameters:    Size  Location     Type
  2664 ;;		None
  2665 ;; Auto vars:     Size  Location     Type
  2666 ;;		None
  2667 ;; Return value:  Size  Location     Type
  2668 ;;                  1    wreg      unsigned char 
  2669 ;; Registers used:
  2670 ;;		wreg
  2671 ;; Tracked objects:
  2672 ;;		On entry : 0/0
  2673 ;;		On exit  : 0/0
  2674 ;;		Unchanged: 0/0
  2675 ;; Data sizes:     COMRAM   BANK0   BANK1   BANK2   BANK3   BANK4   BANK5
  2676 ;;      Params:         0       0       0       0       0       0       0
  2677 ;;      Locals:         0       0       0       0       0       0       0
  2678 ;;      Temps:          0       0       0       0       0       0       0
  2679 ;;      Totals:         0       0       0       0       0       0       0
  2680 ;;Total ram usage:        0 bytes
  2681 ;; Hardware stack levels used: 1
  2682 ;; Hardware stack levels required when called: 1
  2683 ;; This function calls:
  2684 ;;		Nothing
  2685 ;; This function is called by:
  2686 ;;		_read_switches
  2687 ;; This function uses a non-reentrant model
  2688 ;;
  2689                           
  2690                           	psect	text4
  2691   001BBA                     __ptext4:
  2692                           	callstack 0
  2693   001BBA                     _scan_key:
  2694                           	callstack 28
  2695   001BBA                     
  2696                           ;marix_keypad_p.c: 42:     RB5=0;
  2697   001BBA  9A81               	bcf	3969,5,c	;volatile
  2698                           
  2699                           ;marix_keypad_p.c: 43:     RB6=RB7=1;
  2700   001BBC  8E81               	bsf	3969,7,c	;volatile
  2701   001BBE  8C81               	bsf	3969,6,c	;volatile
  2702                           
  2703                           ;marix_keypad_p.c: 44:     if( RB1 == 0)
  2704   001BC0  B281               	btfsc	3969,1,c	;volatile
  2705   001BC2  EFE5  F00D         	goto	u351
  2706   001BC6  EFE7  F00D         	goto	u350
  2707   001BCA                     u351:
  2708   001BCA  EFEA  F00D         	goto	l589
  2709   001BCE                     u350:
  2710   001BCE                     
  2711                           ;marix_keypad_p.c: 45:         return 1;
  2712   001BCE  0E01               	movlw	1
  2713   001BD0  EF5F  F00E         	goto	l590
  2714   001BD4                     l589:
  2715   001BD4  B481               	btfsc	3969,2,c	;volatile
  2716   001BD6  EFEF  F00D         	goto	u361
  2717   001BDA  EFF1  F00D         	goto	u360
  2718   001BDE                     u361:
  2719   001BDE  EFF4  F00D         	goto	l592
  2720   001BE2                     u360:
  2721   001BE2                     
  2722                           ;marix_keypad_p.c: 47:         return 4;
  2723   001BE2  0E04               	movlw	4
  2724   001BE4  EF5F  F00E         	goto	l590
  2725   001BE8                     l592:
  2726   001BE8  B681               	btfsc	3969,3,c	;volatile
  2727   001BEA  EFF9  F00D         	goto	u371
  2728   001BEE  EFFB  F00D         	goto	u370
  2729   001BF2                     u371:
  2730   001BF2  EFFE  F00D         	goto	l594
  2731   001BF6                     u370:
  2732   001BF6                     
  2733                           ;marix_keypad_p.c: 49:         return 7;
  2734   001BF6  0E07               	movlw	7
  2735   001BF8  EF5F  F00E         	goto	l590
  2736   001BFC                     l594:
  2737   001BFC  B881               	btfsc	3969,4,c	;volatile
  2738   001BFE  EF03  F00E         	goto	u381
  2739   001C02  EF05  F00E         	goto	u380
  2740   001C06                     u381:
  2741   001C06  EF08  F00E         	goto	l591
  2742   001C0A                     u380:
  2743   001C0A                     
  2744                           ;marix_keypad_p.c: 51:         return 10;
  2745   001C0A  0E0A               	movlw	10
  2746   001C0C  EF5F  F00E         	goto	l590
  2747   001C10                     l591:
  2748                           
  2749                           ;marix_keypad_p.c: 53:      RB6=0;
  2750   001C10  9C81               	bcf	3969,6,c	;volatile
  2751                           
  2752                           ;marix_keypad_p.c: 54:     RB5=RB7=1;
  2753   001C12  8E81               	bsf	3969,7,c	;volatile
  2754   001C14  8A81               	bsf	3969,5,c	;volatile
  2755                           
  2756                           ;marix_keypad_p.c: 55:     if( RB1 == 0)
  2757   001C16  B281               	btfsc	3969,1,c	;volatile
  2758   001C18  EF10  F00E         	goto	u391
  2759   001C1C  EF12  F00E         	goto	u390
  2760   001C20                     u391:
  2761   001C20  EF15  F00E         	goto	l597
  2762   001C24                     u390:
  2763   001C24                     
  2764                           ;marix_keypad_p.c: 56:         return 2;
  2765   001C24  0E02               	movlw	2
  2766   001C26  EF5F  F00E         	goto	l590
  2767   001C2A                     l597:
  2768   001C2A  B481               	btfsc	3969,2,c	;volatile
  2769   001C2C  EF1A  F00E         	goto	u401
  2770   001C30  EF1C  F00E         	goto	u400
  2771   001C34                     u401:
  2772   001C34  EF1F  F00E         	goto	l599
  2773   001C38                     u400:
  2774   001C38                     
  2775                           ;marix_keypad_p.c: 58:         return 5;
  2776   001C38  0E05               	movlw	5
  2777   001C3A  EF5F  F00E         	goto	l590
  2778   001C3E                     l599:
  2779   001C3E  B681               	btfsc	3969,3,c	;volatile
  2780   001C40  EF24  F00E         	goto	u411
  2781   001C44  EF26  F00E         	goto	u410
  2782   001C48                     u411:
  2783   001C48  EF29  F00E         	goto	l601
  2784   001C4C                     u410:
  2785   001C4C                     
  2786                           ;marix_keypad_p.c: 60:         return 8;
  2787   001C4C  0E08               	movlw	8
  2788   001C4E  EF5F  F00E         	goto	l590
  2789   001C52                     l601:
  2790   001C52  B881               	btfsc	3969,4,c	;volatile
  2791   001C54  EF2E  F00E         	goto	u421
  2792   001C58  EF30  F00E         	goto	u420
  2793   001C5C                     u421:
  2794   001C5C  EF33  F00E         	goto	l598
  2795   001C60                     u420:
  2796   001C60                     
  2797                           ;marix_keypad_p.c: 62:         return 11;
  2798   001C60  0E0B               	movlw	11
  2799   001C62  EF5F  F00E         	goto	l590
  2800   001C66                     l598:
  2801                           
  2802                           ;marix_keypad_p.c: 64:      RB7=0;
  2803   001C66  9E81               	bcf	3969,7,c	;volatile
  2804                           
  2805                           ;marix_keypad_p.c: 65:     RB5=RB6=1;
  2806   001C68  8C81               	bsf	3969,6,c	;volatile
  2807   001C6A  8A81               	bsf	3969,5,c	;volatile
  2808                           
  2809                           ;marix_keypad_p.c: 66:     if( RB1 == 0)
  2810   001C6C  B281               	btfsc	3969,1,c	;volatile
  2811   001C6E  EF3B  F00E         	goto	u431
  2812   001C72  EF3D  F00E         	goto	u430
  2813   001C76                     u431:
  2814   001C76  EF40  F00E         	goto	l604
  2815   001C7A                     u430:
  2816   001C7A                     
  2817                           ;marix_keypad_p.c: 67:         return 3;
  2818   001C7A  0E03               	movlw	3
  2819   001C7C  EF5F  F00E         	goto	l590
  2820   001C80                     l604:
  2821   001C80  B481               	btfsc	3969,2,c	;volatile
  2822   001C82  EF45  F00E         	goto	u441
  2823   001C86  EF47  F00E         	goto	u440
  2824   001C8A                     u441:
  2825   001C8A  EF4A  F00E         	goto	l606
  2826   001C8E                     u440:
  2827   001C8E                     
  2828                           ;marix_keypad_p.c: 69:         return 6;
  2829   001C8E  0E06               	movlw	6
  2830   001C90  EF5F  F00E         	goto	l590
  2831   001C94                     l606:
  2832   001C94  B681               	btfsc	3969,3,c	;volatile
  2833   001C96  EF4F  F00E         	goto	u451
  2834   001C9A  EF51  F00E         	goto	u450
  2835   001C9E                     u451:
  2836   001C9E  EF54  F00E         	goto	l608
  2837   001CA2                     u450:
  2838   001CA2                     
  2839                           ;marix_keypad_p.c: 71:         return 9;
  2840   001CA2  0E09               	movlw	9
  2841   001CA4  EF5F  F00E         	goto	l590
  2842   001CA8                     l608:
  2843   001CA8  B881               	btfsc	3969,4,c	;volatile
  2844   001CAA  EF59  F00E         	goto	u461
  2845   001CAE  EF5B  F00E         	goto	u460
  2846   001CB2                     u461:
  2847   001CB2  EF5E  F00E         	goto	l607
  2848   001CB6                     u460:
  2849   001CB6                     
  2850                           ;marix_keypad_p.c: 73:         return 12;
  2851   001CB6  0E0C               	movlw	12
  2852   001CB8  EF5F  F00E         	goto	l590
  2853   001CBC                     l607:
  2854   001CBC                     
  2855                           ;marix_keypad_p.c: 75:     return 0xFF;
  2856   001CBC  0EFF               	movlw	255
  2857   001CBE                     l590:
  2858   001CBE  0012               	return		;funcret
  2859   001CC0                     __end_of_scan_key:
  2860                           	callstack 0
  2861                           
  2862 ;; *************** function _main_menu *****************
  2863 ;; Defined at:
  2864 ;;		line 249 in file "black_box.c"
  2865 ;; Parameters:    Size  Location     Type
  2866 ;;		None
  2867 ;; Auto vars:     Size  Location     Type
  2868 ;;		None
  2869 ;; Return value:  Size  Location     Type
  2870 ;;                  1    wreg      void 
  2871 ;; Registers used:
  2872 ;;		wreg, fsr0l, fsr0h, fsr2l, fsr2h, status,2, status,0, tblptrl, tblptrh, tblptru, prodl, prodh, cstack
  2873 ;; Tracked objects:
  2874 ;;		On entry : 0/0
  2875 ;;		On exit  : 0/0
  2876 ;;		Unchanged: 0/0
  2877 ;; Data sizes:     COMRAM   BANK0   BANK1   BANK2   BANK3   BANK4   BANK5
  2878 ;;      Params:         0       0       0       0       0       0       0
  2879 ;;      Locals:         0       0       0       0       0       0       0
  2880 ;;      Temps:          2       0       0       0       0       0       0
  2881 ;;      Totals:         2       0       0       0       0       0       0
  2882 ;;Total ram usage:        2 bytes
  2883 ;; Hardware stack levels used: 1
  2884 ;; Hardware stack levels required when called: 3
  2885 ;; This function calls:
  2886 ;;		_clcd_print
  2887 ;;		_clcd_putch
  2888 ;;		_clcd_write
  2889 ;; This function is called by:
  2890 ;;		_main
  2891 ;; This function uses a non-reentrant model
  2892 ;;
  2893                           
  2894                           	psect	text5
  2895   00125E                     __ptext5:
  2896                           	callstack 0
  2897   00125E                     _main_menu:
  2898                           	callstack 27
  2899   00125E                     
  2900                           ;black_box.c: 251:     static int j=0, count=0, flag=0;;black_box.c: 252:     static uns
      +                          igned long int delay1=0, delay2=0;;black_box.c: 253:     if (key == (char*)11 )
  2901   00125E  0E0B               	movlw	11
  2902   001260  1828               	xorwf	_key^0,w,c
  2903   001262  1029               	iorwf	(_key+1)^0,w,c
  2904   001264  A4D8               	btfss	status,2,c
  2905   001266  EF37  F009         	goto	u2411
  2906   00126A  EF39  F009         	goto	u2410
  2907   00126E                     u2411:
  2908   00126E  EFA2  F009         	goto	l3770
  2909   001272                     u2410:
  2910   001272                     
  2911                           ;black_box.c: 254:     {;black_box.c: 255:         if(++delay1 >= 500 )
  2912   001272  0E01               	movlw	1
  2913   001274  2601               	addwf	main_menu@delay1^0,f,c
  2914   001276  0E00               	movlw	0
  2915   001278  2202               	addwfc	(main_menu@delay1+1)^0,f,c
  2916   00127A  2203               	addwfc	(main_menu@delay1+2)^0,f,c
  2917   00127C  2204               	addwfc	(main_menu@delay1+3)^0,f,c
  2918   00127E  5004               	movf	(main_menu@delay1+3)^0,w,c
  2919   001280  1003               	iorwf	(main_menu@delay1+2)^0,w,c
  2920   001282  E10B               	bnz	u2420
  2921   001284  0EF4               	movlw	244
  2922   001286  5C01               	subwf	main_menu@delay1^0,w,c
  2923   001288  0E01               	movlw	1
  2924   00128A  5802               	subwfb	(main_menu@delay1+1)^0,w,c
  2925   00128C  A0D8               	btfss	status,0,c
  2926   00128E  EF4B  F009         	goto	u2421
  2927   001292  EF4D  F009         	goto	u2420
  2928   001296                     u2421:
  2929   001296  EF03  F00A         	goto	l3792
  2930   00129A                     u2420:
  2931   00129A                     
  2932                           ;black_box.c: 256:         {;black_box.c: 257:             clcd_write(0x01, 0);
  2933   00129A  0E00               	movlw	0
  2934   00129C  6E32               	movwf	clcd_write@control_bit^0,c
  2935   00129E  0E01               	movlw	1
  2936   0012A0  EC35  F013         	call	_clcd_write
  2937   0012A4                     
  2938                           ;black_box.c: 258:             clcd_print("entered in",(0x80 + (0)));
  2939   0012A4  0E98               	movlw	low STR_35
  2940   0012A6  6E34               	movwf	clcd_print@data^0,c
  2941   0012A8  0E2F               	movlw	high STR_35
  2942   0012AA  6E35               	movwf	(clcd_print@data+1)^0,c
  2943   0012AC  0E80               	movlw	128
  2944   0012AE  6E36               	movwf	clcd_print@addr^0,c
  2945   0012B0  EC56  F011         	call	_clcd_print	;wreg free
  2946   0012B4                     
  2947                           ;black_box.c: 259:             clcd_print(menu[count],(0xC0 + (0)));
  2948   0012B4  501A               	movf	main_menu@count^0,w,c
  2949   0012B6  0D02               	mullw	2
  2950   0012B8  50F3               	movf	243,w,c
  2951   0012BA  0F72               	addlw	low _menu
  2952   0012BC  6ED9               	movwf	fsr2l,c
  2953   0012BE  6ADA               	clrf	fsr2h,c
  2954   0012C0  CFDE F034          	movff	postinc2,clcd_print@data
  2955   0012C4  CFDD F035          	movff	postdec2,clcd_print@data+1
  2956   0012C8  0EC0               	movlw	192
  2957   0012CA  6E36               	movwf	clcd_print@addr^0,c
  2958   0012CC  EC56  F011         	call	_clcd_print	;wreg free
  2959   0012D0                     
  2960                           ;black_box.c: 260:             main_flag = (count+10);
  2961   0012D0  0E0A               	movlw	10
  2962   0012D2  241A               	addwf	main_menu@count^0,w,c
  2963   0012D4  6E26               	movwf	_main_flag^0,c
  2964   0012D6  0E00               	movlw	0
  2965   0012D8  201B               	addwfc	(main_menu@count+1)^0,w,c
  2966   0012DA  6E27               	movwf	(_main_flag+1)^0,c
  2967   0012DC                     
  2968                           ;black_box.c: 261:             j=0;delay1=0;delay2=0; count=0; flag=0,key=0xff;
  2969   0012DC  0E00               	movlw	0
  2970   0012DE  6E1D               	movwf	(main_menu@j+1)^0,c
  2971   0012E0  0E00               	movlw	0
  2972   0012E2  6E1C               	movwf	main_menu@j^0,c
  2973   0012E4  0E00               	movlw	0
  2974   0012E6  6E01               	movwf	main_menu@delay1^0,c
  2975   0012E8  0E00               	movlw	0
  2976   0012EA  6E02               	movwf	(main_menu@delay1+1)^0,c
  2977   0012EC  0E00               	movlw	0
  2978   0012EE  6E03               	movwf	(main_menu@delay1+2)^0,c
  2979   0012F0  0E00               	movlw	0
  2980   0012F2  6E04               	movwf	(main_menu@delay1+3)^0,c
  2981   0012F4  0E00               	movlw	0
  2982   0012F6  0100               	movlb	0	; () banked
  2983   0012F8  6FC4               	movwf	main_menu@delay2& (0+255),b
  2984   0012FA  0E00               	movlw	0
  2985   0012FC  6FC5               	movwf	(main_menu@delay2+1)& (0+255),b
  2986   0012FE  0E00               	movlw	0
  2987   001300  6FC6               	movwf	(main_menu@delay2+2)& (0+255),b
  2988   001302  0E00               	movlw	0
  2989   001304  6FC7               	movwf	(main_menu@delay2+3)& (0+255),b
  2990   001306                     
  2991                           ; BSR set to: 0
  2992   001306  0E00               	movlw	0
  2993   001308  6E1B               	movwf	(main_menu@count+1)^0,c
  2994   00130A  0E00               	movlw	0
  2995   00130C  6E1A               	movwf	main_menu@count^0,c
  2996   00130E                     
  2997                           ; BSR set to: 0
  2998   00130E  0E00               	movlw	0
  2999   001310  6E19               	movwf	(main_menu@flag+1)^0,c
  3000   001312  0E00               	movlw	0
  3001   001314  6E18               	movwf	main_menu@flag^0,c
  3002   001316                     
  3003                           ; BSR set to: 0
  3004   001316  0EFF               	movlw	255
  3005   001318  6E28               	movwf	_key^0,c
  3006   00131A  0E00               	movlw	0
  3007   00131C  6E29               	movwf	(_key+1)^0,c
  3008   00131E                     
  3009                           ; BSR set to: 0
  3010                           ;black_box.c: 262:             _delay((unsigned long)((1500)*(20000000/4000.0)));
  3011   00131E  0E27               	movlw	39
  3012   001320  6E43               	movwf	(??_main_menu+1)^0,c
  3013   001322  0E0D               	movlw	13
  3014   001324  6E42               	movwf	??_main_menu^0,c
  3015   001326  0E26               	movlw	38
  3016   001328                     u3357:
  3017   001328  2EE8               	decfsz	wreg,f,c
  3018   00132A  D7FE               	bra	u3357
  3019   00132C  2E42               	decfsz	??_main_menu^0,f,c
  3020   00132E  D7FC               	bra	u3357
  3021   001330  2E43               	decfsz	(??_main_menu+1)^0,f,c
  3022   001332  D7FA               	bra	u3357
  3023   001334  D000               	nop2	
  3024   001336                     
  3025                           ;black_box.c: 263:             clcd_write(0x01, 0);
  3026   001336  0E00               	movlw	0
  3027   001338  6E32               	movwf	clcd_write@control_bit^0,c
  3028   00133A  0E01               	movlw	1
  3029   00133C  EC35  F013         	call	_clcd_write
  3030   001340  EFDD  F00A         	goto	l248
  3031   001344                     l3770:
  3032   001344  5001               	movf	main_menu@delay1^0,w,c
  3033   001346  1002               	iorwf	(main_menu@delay1+1)^0,w,c
  3034   001348  1003               	iorwf	(main_menu@delay1+2)^0,w,c
  3035   00134A  1004               	iorwf	(main_menu@delay1+3)^0,w,c
  3036   00134C  B4D8               	btfsc	status,2,c
  3037   00134E  EFAB  F009         	goto	u2431
  3038   001352  EFAD  F009         	goto	u2430
  3039   001356                     u2431:
  3040   001356  EFFB  F009         	goto	l3788
  3041   00135A                     u2430:
  3042   00135A  5004               	movf	(main_menu@delay1+3)^0,w,c
  3043   00135C  1003               	iorwf	(main_menu@delay1+2)^0,w,c
  3044   00135E  E109               	bnz	u2441
  3045   001360  0EF4               	movlw	244
  3046   001362  5C01               	subwf	main_menu@delay1^0,w,c
  3047   001364  0E01               	movlw	1
  3048   001366  5802               	subwfb	(main_menu@delay1+1)^0,w,c
  3049   001368  B0D8               	btfsc	status,0,c
  3050   00136A  EFB9  F009         	goto	u2441
  3051   00136E  EFBB  F009         	goto	u2440
  3052   001372                     u2441:
  3053   001372  EFFB  F009         	goto	l3788
  3054   001376                     u2440:
  3055   001376  BE1B               	btfsc	(main_menu@count+1)^0,7,c
  3056   001378  EFC6  F009         	goto	u2451
  3057   00137C  501B               	movf	(main_menu@count+1)^0,w,c
  3058   00137E  E108               	bnz	u2450
  3059   001380  041A               	decf	main_menu@count^0,w,c
  3060   001382  A0D8               	btfss	status,0,c
  3061   001384  EFC6  F009         	goto	u2451
  3062   001388  EFC8  F009         	goto	u2450
  3063   00138C                     u2451:
  3064   00138C  EFFB  F009         	goto	l3788
  3065   001390                     u2450:
  3066   001390                     
  3067                           ;black_box.c: 268:     {;black_box.c: 269:         if(count < 4 && j > 0 && flag == 0)
  3068   001390  BE1B               	btfsc	(main_menu@count+1)^0,7,c
  3069   001392  EFD6  F009         	goto	u2460
  3070   001396  501B               	movf	(main_menu@count+1)^0,w,c
  3071   001398  E107               	bnz	u2461
  3072   00139A  0E04               	movlw	4
  3073   00139C  5C1A               	subwf	main_menu@count^0,w,c
  3074   00139E  B0D8               	btfsc	status,0,c
  3075   0013A0  EFD4  F009         	goto	u2461
  3076   0013A4  EFD6  F009         	goto	u2460
  3077   0013A8                     u2461:
  3078   0013A8  EFEF  F009         	goto	l251
  3079   0013AC                     u2460:
  3080   0013AC  BE1D               	btfsc	(main_menu@j+1)^0,7,c
  3081   0013AE  EFE1  F009         	goto	u2471
  3082   0013B2  501D               	movf	(main_menu@j+1)^0,w,c
  3083   0013B4  E108               	bnz	u2470
  3084   0013B6  041C               	decf	main_menu@j^0,w,c
  3085   0013B8  A0D8               	btfss	status,0,c
  3086   0013BA  EFE1  F009         	goto	u2471
  3087   0013BE  EFE3  F009         	goto	u2470
  3088   0013C2                     u2471:
  3089   0013C2  EFEF  F009         	goto	l251
  3090   0013C6                     u2470:
  3091   0013C6  5018               	movf	main_menu@flag^0,w,c
  3092   0013C8  1019               	iorwf	(main_menu@flag+1)^0,w,c
  3093   0013CA  A4D8               	btfss	status,2,c
  3094   0013CC  EFEA  F009         	goto	u2481
  3095   0013D0  EFEC  F009         	goto	u2480
  3096   0013D4                     u2481:
  3097   0013D4  EFEF  F009         	goto	l251
  3098   0013D8                     u2480:
  3099   0013D8                     
  3100                           ;black_box.c: 270:         {;black_box.c: 271:             j--;
  3101   0013D8  061C               	decf	main_menu@j^0,f,c
  3102   0013DA  A0D8               	btfss	status,0,c
  3103   0013DC  061D               	decf	(main_menu@j+1)^0,f,c
  3104   0013DE                     l251:
  3105                           
  3106                           ;black_box.c: 273:         count--;
  3107   0013DE  061A               	decf	main_menu@count^0,f,c
  3108   0013E0  A0D8               	btfss	status,0,c
  3109   0013E2  061B               	decf	(main_menu@count+1)^0,f,c
  3110   0013E4                     
  3111                           ;black_box.c: 274:         clcd_write(0x01, 0);
  3112   0013E4  0E00               	movlw	0
  3113   0013E6  6E32               	movwf	clcd_write@control_bit^0,c
  3114   0013E8  0E01               	movlw	1
  3115   0013EA  EC35  F013         	call	_clcd_write
  3116   0013EE                     
  3117                           ;black_box.c: 275:         flag=0;
  3118   0013EE  0E00               	movlw	0
  3119   0013F0  6E19               	movwf	(main_menu@flag+1)^0,c
  3120   0013F2  0E00               	movlw	0
  3121   0013F4  6E18               	movwf	main_menu@flag^0,c
  3122   0013F6                     l3788:
  3123                           
  3124                           ;black_box.c: 276:         delay1=0;
  3125   0013F6  0E00               	movlw	0
  3126   0013F8  6E01               	movwf	main_menu@delay1^0,c
  3127   0013FA  0E00               	movlw	0
  3128   0013FC  6E02               	movwf	(main_menu@delay1+1)^0,c
  3129   0013FE  0E00               	movlw	0
  3130   001400  6E03               	movwf	(main_menu@delay1+2)^0,c
  3131   001402  0E00               	movlw	0
  3132   001404  6E04               	movwf	(main_menu@delay1+3)^0,c
  3133   001406                     l3792:
  3134                           
  3135                           ;black_box.c: 280:     if (key == (char*)12 )
  3136   001406  0E0C               	movlw	12
  3137   001408  1828               	xorwf	_key^0,w,c
  3138   00140A  1029               	iorwf	(_key+1)^0,w,c
  3139   00140C  A4D8               	btfss	status,2,c
  3140   00140E  EF0B  F00A         	goto	u2491
  3141   001412  EF0D  F00A         	goto	u2490
  3142   001416                     u2491:
  3143   001416  EF4A  F00A         	goto	l3812
  3144   00141A                     u2490:
  3145   00141A                     
  3146                           ;black_box.c: 281:     {;black_box.c: 282:         if(++delay2 >= 500)
  3147   00141A  0E01               	movlw	1
  3148   00141C  0100               	movlb	0	; () banked
  3149   00141E  27C4               	addwf	main_menu@delay2& (0+255),f,b
  3150   001420  0E00               	movlw	0
  3151   001422  23C5               	addwfc	(main_menu@delay2+1)& (0+255),f,b
  3152   001424  23C6               	addwfc	(main_menu@delay2+2)& (0+255),f,b
  3153   001426  23C7               	addwfc	(main_menu@delay2+3)& (0+255),f,b
  3154   001428  51C7               	movf	(main_menu@delay2+3)& (0+255),w,b
  3155   00142A  11C6               	iorwf	(main_menu@delay2+2)& (0+255),w,b
  3156   00142C  E10B               	bnz	u2500
  3157   00142E  0EF4               	movlw	244
  3158   001430  5DC4               	subwf	main_menu@delay2& (0+255),w,b
  3159   001432  0E01               	movlw	1
  3160   001434  59C5               	subwfb	(main_menu@delay2+1)& (0+255),w,b
  3161   001436  A0D8               	btfss	status,0,c
  3162   001438  EF20  F00A         	goto	u2501
  3163   00143C  EF22  F00A         	goto	u2500
  3164   001440                     u2501:
  3165   001440  EFAC  F00A         	goto	l3834
  3166   001444                     u2500:
  3167   001444                     
  3168                           ; BSR set to: 0
  3169                           ;black_box.c: 283:         {;black_box.c: 284:             clcd_write(0x01, 0);
  3170   001444  0E00               	movlw	0
  3171   001446  6E32               	movwf	clcd_write@control_bit^0,c
  3172   001448  0E01               	movlw	1
  3173   00144A  EC35  F013         	call	_clcd_write
  3174   00144E                     
  3175                           ;black_box.c: 285:             j=0;delay1=0; delay2=0; count=0; flag=0;
  3176   00144E  0E00               	movlw	0
  3177   001450  6E1D               	movwf	(main_menu@j+1)^0,c
  3178   001452  0E00               	movlw	0
  3179   001454  6E1C               	movwf	main_menu@j^0,c
  3180   001456  0E00               	movlw	0
  3181   001458  6E01               	movwf	main_menu@delay1^0,c
  3182   00145A  0E00               	movlw	0
  3183   00145C  6E02               	movwf	(main_menu@delay1+1)^0,c
  3184   00145E  0E00               	movlw	0
  3185   001460  6E03               	movwf	(main_menu@delay1+2)^0,c
  3186   001462  0E00               	movlw	0
  3187   001464  6E04               	movwf	(main_menu@delay1+3)^0,c
  3188   001466  0E00               	movlw	0
  3189   001468  0100               	movlb	0	; () banked
  3190   00146A  6FC4               	movwf	main_menu@delay2& (0+255),b
  3191   00146C  0E00               	movlw	0
  3192   00146E  6FC5               	movwf	(main_menu@delay2+1)& (0+255),b
  3193   001470  0E00               	movlw	0
  3194   001472  6FC6               	movwf	(main_menu@delay2+2)& (0+255),b
  3195   001474  0E00               	movlw	0
  3196   001476  6FC7               	movwf	(main_menu@delay2+3)& (0+255),b
  3197   001478                     
  3198                           ; BSR set to: 0
  3199   001478  0E00               	movlw	0
  3200   00147A  6E1B               	movwf	(main_menu@count+1)^0,c
  3201   00147C  0E00               	movlw	0
  3202   00147E  6E1A               	movwf	main_menu@count^0,c
  3203   001480                     
  3204                           ; BSR set to: 0
  3205   001480  0E00               	movlw	0
  3206   001482  6E19               	movwf	(main_menu@flag+1)^0,c
  3207   001484  0E00               	movlw	0
  3208   001486  6E18               	movwf	main_menu@flag^0,c
  3209   001488                     
  3210                           ; BSR set to: 0
  3211                           ;black_box.c: 286:             main_flag=0;
  3212   001488  0E00               	movlw	0
  3213   00148A  6E27               	movwf	(_main_flag+1)^0,c
  3214   00148C  0E00               	movlw	0
  3215   00148E  6E26               	movwf	_main_flag^0,c
  3216   001490  EFDD  F00A         	goto	l248
  3217   001494                     l3812:
  3218   001494  0100               	movlb	0	; () banked
  3219   001496  51C4               	movf	main_menu@delay2& (0+255),w,b
  3220   001498  11C5               	iorwf	(main_menu@delay2+1)& (0+255),w,b
  3221   00149A  11C6               	iorwf	(main_menu@delay2+2)& (0+255),w,b
  3222   00149C  11C7               	iorwf	(main_menu@delay2+3)& (0+255),w,b
  3223   00149E  B4D8               	btfsc	status,2,c
  3224   0014A0  EF54  F00A         	goto	u2511
  3225   0014A4  EF56  F00A         	goto	u2510
  3226   0014A8                     u2511:
  3227   0014A8  EFA3  F00A         	goto	l3830
  3228   0014AC                     u2510:
  3229   0014AC                     
  3230                           ; BSR set to: 0
  3231   0014AC  51C7               	movf	(main_menu@delay2+3)& (0+255),w,b
  3232   0014AE  11C6               	iorwf	(main_menu@delay2+2)& (0+255),w,b
  3233   0014B0  E109               	bnz	u2521
  3234   0014B2  0EF4               	movlw	244
  3235   0014B4  5DC4               	subwf	main_menu@delay2& (0+255),w,b
  3236   0014B6  0E01               	movlw	1
  3237   0014B8  59C5               	subwfb	(main_menu@delay2+1)& (0+255),w,b
  3238   0014BA  B0D8               	btfsc	status,0,c
  3239   0014BC  EF62  F00A         	goto	u2521
  3240   0014C0  EF64  F00A         	goto	u2520
  3241   0014C4                     u2521:
  3242   0014C4  EFA3  F00A         	goto	l3830
  3243   0014C8                     u2520:
  3244   0014C8                     
  3245                           ; BSR set to: 0
  3246   0014C8  BE1B               	btfsc	(main_menu@count+1)^0,7,c
  3247   0014CA  EF72  F00A         	goto	u2530
  3248   0014CE  501B               	movf	(main_menu@count+1)^0,w,c
  3249   0014D0  E107               	bnz	u2531
  3250   0014D2  0E04               	movlw	4
  3251   0014D4  5C1A               	subwf	main_menu@count^0,w,c
  3252   0014D6  B0D8               	btfsc	status,0,c
  3253   0014D8  EF70  F00A         	goto	u2531
  3254   0014DC  EF72  F00A         	goto	u2530
  3255   0014E0                     u2531:
  3256   0014E0  EFA3  F00A         	goto	l3830
  3257   0014E4                     u2530:
  3258   0014E4                     
  3259                           ; BSR set to: 0
  3260                           ;black_box.c: 291:     {;black_box.c: 292:         if(count > 0 && j < 3 && flag== 1)
  3261   0014E4  BE1B               	btfsc	(main_menu@count+1)^0,7,c
  3262   0014E6  EF7D  F00A         	goto	u2541
  3263   0014EA  501B               	movf	(main_menu@count+1)^0,w,c
  3264   0014EC  E108               	bnz	u2540
  3265   0014EE  041A               	decf	main_menu@count^0,w,c
  3266   0014F0  A0D8               	btfss	status,0,c
  3267   0014F2  EF7D  F00A         	goto	u2541
  3268   0014F6  EF7F  F00A         	goto	u2540
  3269   0014FA                     u2541:
  3270   0014FA  EF98  F00A         	goto	l257
  3271   0014FE                     u2540:
  3272   0014FE                     
  3273                           ; BSR set to: 0
  3274   0014FE  BE1D               	btfsc	(main_menu@j+1)^0,7,c
  3275   001500  EF8D  F00A         	goto	u2550
  3276   001504  501D               	movf	(main_menu@j+1)^0,w,c
  3277   001506  E107               	bnz	u2551
  3278   001508  0E03               	movlw	3
  3279   00150A  5C1C               	subwf	main_menu@j^0,w,c
  3280   00150C  B0D8               	btfsc	status,0,c
  3281   00150E  EF8B  F00A         	goto	u2551
  3282   001512  EF8D  F00A         	goto	u2550
  3283   001516                     u2551:
  3284   001516  EF98  F00A         	goto	l257
  3285   00151A                     u2550:
  3286   00151A                     
  3287                           ; BSR set to: 0
  3288   00151A  0418               	decf	main_menu@flag^0,w,c
  3289   00151C  1019               	iorwf	(main_menu@flag+1)^0,w,c
  3290   00151E  A4D8               	btfss	status,2,c
  3291   001520  EF94  F00A         	goto	u2561
  3292   001524  EF96  F00A         	goto	u2560
  3293   001528                     u2561:
  3294   001528  EF98  F00A         	goto	l257
  3295   00152C                     u2560:
  3296   00152C                     
  3297                           ; BSR set to: 0
  3298                           ;black_box.c: 293:         {;black_box.c: 294:             j++;
  3299   00152C  4A1C               	infsnz	main_menu@j^0,f,c
  3300   00152E  2A1D               	incf	(main_menu@j+1)^0,f,c
  3301   001530                     l257:
  3302                           
  3303                           ; BSR set to: 0
  3304                           ;black_box.c: 296:         count++;
  3305   001530  4A1A               	infsnz	main_menu@count^0,f,c
  3306   001532  2A1B               	incf	(main_menu@count+1)^0,f,c
  3307   001534                     
  3308                           ; BSR set to: 0
  3309                           ;black_box.c: 297:         clcd_write(0x01, 0);
  3310   001534  0E00               	movlw	0
  3311   001536  6E32               	movwf	clcd_write@control_bit^0,c
  3312   001538  0E01               	movlw	1
  3313   00153A  EC35  F013         	call	_clcd_write
  3314   00153E                     
  3315                           ;black_box.c: 298:         flag=1;
  3316   00153E  0E00               	movlw	0
  3317   001540  6E19               	movwf	(main_menu@flag+1)^0,c
  3318   001542  0E01               	movlw	1
  3319   001544  6E18               	movwf	main_menu@flag^0,c
  3320   001546                     l3830:
  3321                           
  3322                           ;black_box.c: 299:         delay2=0;
  3323   001546  0E00               	movlw	0
  3324   001548  0100               	movlb	0	; () banked
  3325   00154A  6FC4               	movwf	main_menu@delay2& (0+255),b
  3326   00154C  0E00               	movlw	0
  3327   00154E  6FC5               	movwf	(main_menu@delay2+1)& (0+255),b
  3328   001550  0E00               	movlw	0
  3329   001552  6FC6               	movwf	(main_menu@delay2+2)& (0+255),b
  3330   001554  0E00               	movlw	0
  3331   001556  6FC7               	movwf	(main_menu@delay2+3)& (0+255),b
  3332   001558                     l3834:
  3333                           
  3334                           ; BSR set to: 0
  3335                           ;black_box.c: 306:     if(flag == 0)
  3336   001558  5018               	movf	main_menu@flag^0,w,c
  3337   00155A  1019               	iorwf	(main_menu@flag+1)^0,w,c
  3338   00155C  A4D8               	btfss	status,2,c
  3339   00155E  EFB3  F00A         	goto	u2571
  3340   001562  EFB5  F00A         	goto	u2570
  3341   001566                     u2571:
  3342   001566  EFBC  F00A         	goto	l3838
  3343   00156A                     u2570:
  3344   00156A                     
  3345                           ; BSR set to: 0
  3346                           ;black_box.c: 307:     {;black_box.c: 308:         clcd_putch('*',(0x80 + (0)));
  3347   00156A  0E80               	movlw	128
  3348   00156C  6E40               	movwf	clcd_putch@addr^0,c
  3349   00156E  0E2A               	movlw	42
  3350   001570  ECCF  F013         	call	_clcd_putch
  3351                           
  3352                           ;black_box.c: 309:     }
  3353   001574  EFC1  F00A         	goto	l3840
  3354   001578                     l3838:
  3355                           
  3356                           ; BSR set to: 0
  3357                           ;black_box.c: 311:     {;black_box.c: 312:         clcd_putch('*',(0xC0 + (0)));
  3358   001578  0EC0               	movlw	192
  3359   00157A  6E40               	movwf	clcd_putch@addr^0,c
  3360   00157C  0E2A               	movlw	42
  3361   00157E  ECCF  F013         	call	_clcd_putch
  3362   001582                     l3840:
  3363                           
  3364                           ;black_box.c: 314:     clcd_print(menu[j],(0x80 + (1)));
  3365   001582  501C               	movf	main_menu@j^0,w,c
  3366   001584  0D02               	mullw	2
  3367   001586  50F3               	movf	243,w,c
  3368   001588  0F72               	addlw	low _menu
  3369   00158A  6ED9               	movwf	fsr2l,c
  3370   00158C  6ADA               	clrf	fsr2h,c
  3371   00158E  CFDE F034          	movff	postinc2,clcd_print@data
  3372   001592  CFDD F035          	movff	postdec2,clcd_print@data+1
  3373   001596  0E81               	movlw	129
  3374   001598  6E36               	movwf	clcd_print@addr^0,c
  3375   00159A  EC56  F011         	call	_clcd_print	;wreg free
  3376   00159E                     
  3377                           ;black_box.c: 315:     clcd_print(menu[j+1],(0xC0 + (1)));
  3378   00159E  501C               	movf	main_menu@j^0,w,c
  3379   0015A0  0D02               	mullw	2
  3380   0015A2  50F3               	movf	243,w,c
  3381   0015A4  0F74               	addlw	low (_menu+2)
  3382   0015A6  6ED9               	movwf	fsr2l,c
  3383   0015A8  6ADA               	clrf	fsr2h,c
  3384   0015AA  CFDE F034          	movff	postinc2,clcd_print@data
  3385   0015AE  CFDD F035          	movff	postdec2,clcd_print@data+1
  3386   0015B2  0EC1               	movlw	193
  3387   0015B4  6E36               	movwf	clcd_print@addr^0,c
  3388   0015B6  EC56  F011         	call	_clcd_print	;wreg free
  3389   0015BA                     l248:
  3390   0015BA  0012               	return		;funcret
  3391   0015BC                     __end_of_main_menu:
  3392                           	callstack 0
  3393                           
  3394 ;; *************** function _login_screen *****************
  3395 ;; Defined at:
  3396 ;;		line 145 in file "black_box.c"
  3397 ;; Parameters:    Size  Location     Type
  3398 ;;		None
  3399 ;; Auto vars:     Size  Location     Type
  3400 ;;		None
  3401 ;; Return value:  Size  Location     Type
  3402 ;;                  1    wreg      void 
  3403 ;; Registers used:
  3404 ;;		wreg, fsr0l, fsr0h, fsr1l, fsr1h, fsr2l, fsr2h, status,2, status,0, tblptrl, tblptrh, tblptru, cstack
  3405 ;; Tracked objects:
  3406 ;;		On entry : 0/0
  3407 ;;		On exit  : 0/0
  3408 ;;		Unchanged: 0/0
  3409 ;; Data sizes:     COMRAM   BANK0   BANK1   BANK2   BANK3   BANK4   BANK5
  3410 ;;      Params:         0       0       0       0       0       0       0
  3411 ;;      Locals:         0       0       0       0       0       0       0
  3412 ;;      Temps:          2       0       0       0       0       0       0
  3413 ;;      Totals:         2       0       0       0       0       0       0
  3414 ;;Total ram usage:        2 bytes
  3415 ;; Hardware stack levels used: 1
  3416 ;; Hardware stack levels required when called: 6
  3417 ;; This function calls:
  3418 ;;		___awdiv
  3419 ;;		___awmod
  3420 ;;		_clcd_print
  3421 ;;		_clcd_putch
  3422 ;;		_clcd_write
  3423 ;;		_fetch_password
  3424 ;;		_strcmp
  3425 ;; This function is called by:
  3426 ;;		_main
  3427 ;; This function uses a non-reentrant model
  3428 ;;
  3429                           
  3430                           	psect	text6
  3431   000E5E                     __ptext6:
  3432                           	callstack 0
  3433   000E5E                     _login_screen:
  3434                           	callstack 24
  3435   000E5E                     
  3436                           ;black_box.c: 148:     static short attempt=1,U_S=0, pass_count=0, pass_complet=0;;black
      +                          _box.c: 149:     GIE=1;
  3437   000E5E  8EF2               	bsf	4082,7,c	;volatile
  3438   000E60                     
  3439                           ;black_box.c: 150:     if(E_P_T >= 0 )
  3440   000E60  0100               	movlb	0	; () banked
  3441   000E62  BF81               	btfsc	(_E_P_T+1)& (0+255),7,b
  3442   000E64  EF36  F007         	goto	u2291
  3443   000E68  EF38  F007         	goto	u2290
  3444   000E6C                     u2291:
  3445   000E6C  EFD9  F007         	goto	l3624
  3446   000E70                     u2290:
  3447   000E70                     
  3448                           ; BSR set to: 0
  3449                           ;black_box.c: 151:     {;black_box.c: 153:         if(pass_count < 4)
  3450   000E70  BE1F               	btfsc	(login_screen@pass_count+1)^0,7,c
  3451   000E72  EF46  F007         	goto	u2300
  3452   000E76  501F               	movf	(login_screen@pass_count+1)^0,w,c
  3453   000E78  E107               	bnz	u2301
  3454   000E7A  0E04               	movlw	4
  3455   000E7C  5C1E               	subwf	login_screen@pass_count^0,w,c
  3456   000E7E  B0D8               	btfsc	status,0,c
  3457   000E80  EF44  F007         	goto	u2301
  3458   000E84  EF46  F007         	goto	u2300
  3459   000E88                     u2301:
  3460   000E88  EFCF  F007         	goto	l3622
  3461   000E8C                     u2300:
  3462   000E8C                     
  3463                           ; BSR set to: 0
  3464                           ;black_box.c: 154:         {;black_box.c: 155:             clcd_print("_Enter password_"
      +                          ,(0x80 + (0)));
  3465   000E8C  0EE9               	movlw	low STR_29
  3466   000E8E  6E34               	movwf	clcd_print@data^0,c
  3467   000E90  0E2E               	movlw	high STR_29
  3468   000E92  6E35               	movwf	(clcd_print@data+1)^0,c
  3469   000E94  0E80               	movlw	128
  3470   000E96  6E36               	movwf	clcd_print@addr^0,c
  3471   000E98  EC56  F011         	call	_clcd_print	;wreg free
  3472   000E9C                     
  3473                           ;black_box.c: 156:             if (U_S++ < 200)
  3474   000E9C  5020               	movf	login_screen@U_S^0,w,c
  3475   000E9E  6E42               	movwf	??_login_screen^0,c
  3476   000EA0  5021               	movf	(login_screen@U_S+1)^0,w,c
  3477   000EA2  6E43               	movwf	(??_login_screen+1)^0,c
  3478   000EA4  4A20               	infsnz	login_screen@U_S^0,f,c
  3479   000EA6  2A21               	incf	(login_screen@U_S+1)^0,f,c
  3480   000EA8  BE43               	btfsc	(??_login_screen+1)^0,7,c
  3481   000EAA  EF62  F007         	goto	u2310
  3482   000EAE  5043               	movf	(??_login_screen+1)^0,w,c
  3483   000EB0  E107               	bnz	u2311
  3484   000EB2  0EC8               	movlw	200
  3485   000EB4  5C42               	subwf	??_login_screen^0,w,c
  3486   000EB6  B0D8               	btfsc	status,0,c
  3487   000EB8  EF60  F007         	goto	u2311
  3488   000EBC  EF62  F007         	goto	u2310
  3489   000EC0                     u2311:
  3490   000EC0  EF6A  F007         	goto	l3594
  3491   000EC4                     u2310:
  3492   000EC4                     
  3493                           ;black_box.c: 157:             {;black_box.c: 158:                clcd_putch('_',(0xC0 +
      +                           (pass_count)));
  3494   000EC4  501E               	movf	login_screen@pass_count^0,w,c
  3495   000EC6  0FC0               	addlw	192
  3496   000EC8  6E40               	movwf	clcd_putch@addr^0,c
  3497   000ECA  0E5F               	movlw	95
  3498   000ECC  ECCF  F013         	call	_clcd_putch
  3499                           
  3500                           ;black_box.c: 159:             }
  3501   000ED0  EF98  F007         	goto	l3602
  3502   000ED4                     l3594:
  3503   000ED4  5020               	movf	login_screen@U_S^0,w,c
  3504   000ED6  6E42               	movwf	??_login_screen^0,c
  3505   000ED8  5021               	movf	(login_screen@U_S+1)^0,w,c
  3506   000EDA  6E43               	movwf	(??_login_screen+1)^0,c
  3507   000EDC  4A20               	infsnz	login_screen@U_S^0,f,c
  3508   000EDE  2A21               	incf	(login_screen@U_S+1)^0,f,c
  3509   000EE0  BE43               	btfsc	(??_login_screen+1)^0,7,c
  3510   000EE2  EF7C  F007         	goto	u2321
  3511   000EE6  5043               	movf	(??_login_screen+1)^0,w,c
  3512   000EE8  E109               	bnz	u2320
  3513   000EEA  0EC9               	movlw	201
  3514   000EEC  5C42               	subwf	??_login_screen^0,w,c
  3515   000EEE  A0D8               	btfss	status,0,c
  3516   000EF0  EF7C  F007         	goto	u2321
  3517   000EF4  EF7E  F007         	goto	u2320
  3518   000EF8                     u2321:
  3519   000EF8  EF94  F007         	goto	l3600
  3520   000EFC                     u2320:
  3521   000EFC  BE21               	btfsc	(login_screen@U_S+1)^0,7,c
  3522   000EFE  EF8C  F007         	goto	u2330
  3523   000F02  0E90               	movlw	144
  3524   000F04  5C20               	subwf	login_screen@U_S^0,w,c
  3525   000F06  0E01               	movlw	1
  3526   000F08  5821               	subwfb	(login_screen@U_S+1)^0,w,c
  3527   000F0A  B0D8               	btfsc	status,0,c
  3528   000F0C  EF8A  F007         	goto	u2331
  3529   000F10  EF8C  F007         	goto	u2330
  3530   000F14                     u2331:
  3531   000F14  EF94  F007         	goto	l3600
  3532   000F18                     u2330:
  3533   000F18                     
  3534                           ;black_box.c: 161:             {;black_box.c: 162:                 clcd_putch(' ',(0xC0 
      +                          + (pass_count)));
  3535   000F18  501E               	movf	login_screen@pass_count^0,w,c
  3536   000F1A  0FC0               	addlw	192
  3537   000F1C  6E40               	movwf	clcd_putch@addr^0,c
  3538   000F1E  0E20               	movlw	32
  3539   000F20  ECCF  F013         	call	_clcd_putch
  3540                           
  3541                           ;black_box.c: 163:             }
  3542   000F24  EF98  F007         	goto	l3602
  3543   000F28                     l3600:
  3544                           
  3545                           ;black_box.c: 165:                 U_S =0;
  3546   000F28  0E00               	movlw	0
  3547   000F2A  6E21               	movwf	(login_screen@U_S+1)^0,c
  3548   000F2C  0E00               	movlw	0
  3549   000F2E  6E20               	movwf	login_screen@U_S^0,c
  3550   000F30                     l3602:
  3551                           
  3552                           ;black_box.c: 167:             if(key == 11)
  3553   000F30  0E0B               	movlw	11
  3554   000F32  1828               	xorwf	_key^0,w,c
  3555   000F34  1029               	iorwf	(_key+1)^0,w,c
  3556   000F36  A4D8               	btfss	status,2,c
  3557   000F38  EFA0  F007         	goto	u2341
  3558   000F3C  EFA2  F007         	goto	u2340
  3559   000F40                     u2341:
  3560   000F40  EFB7  F007         	goto	l3612
  3561   000F44                     u2340:
  3562   000F44                     
  3563                           ;black_box.c: 168:             {;black_box.c: 169:                 usr_pass[pass_count]=
      +                          ((char)0+48);
  3564   000F44  501E               	movf	login_screen@pass_count^0,w,c
  3565   000F46  0FA0               	addlw	low _usr_pass
  3566   000F48  6ED9               	movwf	fsr2l,c
  3567   000F4A  6ADA               	clrf	fsr2h,c
  3568   000F4C  0E30               	movlw	48
  3569   000F4E  6EDF               	movwf	indf2,c
  3570   000F50                     
  3571                           ;black_box.c: 170:                 clcd_putch('*',(0xC0 + (pass_count)));
  3572   000F50  501E               	movf	login_screen@pass_count^0,w,c
  3573   000F52  0FC0               	addlw	192
  3574   000F54  6E40               	movwf	clcd_putch@addr^0,c
  3575   000F56  0E2A               	movlw	42
  3576   000F58  ECCF  F013         	call	_clcd_putch
  3577   000F5C                     l3608:
  3578                           
  3579                           ;black_box.c: 171:                 pass_count++;
  3580   000F5C  4A1E               	infsnz	login_screen@pass_count^0,f,c
  3581   000F5E  2A1F               	incf	(login_screen@pass_count+1)^0,f,c
  3582   000F60                     
  3583                           ;black_box.c: 172:                 E_P_T=4;
  3584   000F60  0E00               	movlw	0
  3585   000F62  0100               	movlb	0	; () banked
  3586   000F64  6F81               	movwf	(_E_P_T+1)& (0+255),b
  3587   000F66  0E04               	movlw	4
  3588   000F68  6F80               	movwf	_E_P_T& (0+255),b
  3589                           
  3590                           ;black_box.c: 173:             }
  3591   000F6A  EF01  F008         	goto	l3644
  3592   000F6E                     l3612:
  3593   000F6E  0E0C               	movlw	12
  3594   000F70  1828               	xorwf	_key^0,w,c
  3595   000F72  1029               	iorwf	(_key+1)^0,w,c
  3596   000F74  A4D8               	btfss	status,2,c
  3597   000F76  EFBF  F007         	goto	u2351
  3598   000F7A  EFC1  F007         	goto	u2350
  3599   000F7E                     u2351:
  3600   000F7E  EFD7  F007         	goto	l221
  3601   000F82                     u2350:
  3602   000F82                     
  3603                           ;black_box.c: 175:             {;black_box.c: 176:                 usr_pass[pass_count]=
      +                          ((char)1+48);
  3604   000F82  501E               	movf	login_screen@pass_count^0,w,c
  3605   000F84  0FA0               	addlw	low _usr_pass
  3606   000F86  6ED9               	movwf	fsr2l,c
  3607   000F88  6ADA               	clrf	fsr2h,c
  3608   000F8A  0E31               	movlw	49
  3609   000F8C  6EDF               	movwf	indf2,c
  3610   000F8E                     
  3611                           ;black_box.c: 177:                 clcd_putch('*',(0xC0 + (pass_count)));
  3612   000F8E  501E               	movf	login_screen@pass_count^0,w,c
  3613   000F90  0FC0               	addlw	192
  3614   000F92  6E40               	movwf	clcd_putch@addr^0,c
  3615   000F94  0E2A               	movlw	42
  3616   000F96  ECCF  F013         	call	_clcd_putch
  3617   000F9A  EFAE  F007         	goto	l3608
  3618   000F9E                     l3622:
  3619                           
  3620                           ; BSR set to: 0
  3621                           ;black_box.c: 183:         {;black_box.c: 184:             usr_pass[4]='\0';
  3622   000F9E  0E00               	movlw	0
  3623   000FA0  6FA4               	movwf	(_usr_pass+4)& (0+255),b
  3624                           
  3625                           ;black_box.c: 185:             pass_complet=1;
  3626   000FA2  0E00               	movlw	0
  3627   000FA4  6FCD               	movwf	(login_screen@pass_complet+1)& (0+255),b
  3628   000FA6  0E01               	movlw	1
  3629   000FA8  6FCC               	movwf	login_screen@pass_complet& (0+255),b
  3630   000FAA  EF01  F008         	goto	l3644
  3631   000FAE                     l221:
  3632                           
  3633                           ;black_box.c: 187:     }
  3634   000FAE  EF01  F008         	goto	l3644
  3635   000FB2                     l3624:
  3636                           
  3637                           ; BSR set to: 0
  3638                           ;black_box.c: 189:     {;black_box.c: 190:         clcd_write(0x01, 0);
  3639   000FB2  0E00               	movlw	0
  3640   000FB4  6E32               	movwf	clcd_write@control_bit^0,c
  3641   000FB6  0E01               	movlw	1
  3642   000FB8  EC35  F013         	call	_clcd_write
  3643   000FBC                     
  3644                           ;black_box.c: 191:         main_flag=0;
  3645   000FBC  0E00               	movlw	0
  3646   000FBE  6E27               	movwf	(_main_flag+1)^0,c
  3647   000FC0  0E00               	movlw	0
  3648   000FC2  6E26               	movwf	_main_flag^0,c
  3649   000FC4                     
  3650                           ;black_box.c: 192:         GIE=0;E_P_T=4;at_fail=120;
  3651   000FC4  9EF2               	bcf	4082,7,c	;volatile
  3652   000FC6  0E00               	movlw	0
  3653   000FC8  0100               	movlb	0	; () banked
  3654   000FCA  6F81               	movwf	(_E_P_T+1)& (0+255),b
  3655   000FCC  0E04               	movlw	4
  3656   000FCE  6F80               	movwf	_E_P_T& (0+255),b
  3657   000FD0                     
  3658                           ; BSR set to: 0
  3659   000FD0  0E00               	movlw	0
  3660   000FD2  6E5A               	movwf	(_at_fail+1)^0,c
  3661   000FD4  0E78               	movlw	120
  3662   000FD6  6E59               	movwf	_at_fail^0,c
  3663   000FD8                     l3634:
  3664                           
  3665                           ;black_box.c: 193:         attempt=1;U_S=0; pass_count=0; pass_complet=0;
  3666   000FD8  0E00               	movlw	0
  3667   000FDA  6E58               	movwf	(login_screen@attempt+1)^0,c
  3668   000FDC  0E01               	movlw	1
  3669   000FDE  6E57               	movwf	login_screen@attempt^0,c
  3670   000FE0  0E00               	movlw	0
  3671   000FE2  6E21               	movwf	(login_screen@U_S+1)^0,c
  3672   000FE4  0E00               	movlw	0
  3673   000FE6  6E20               	movwf	login_screen@U_S^0,c
  3674   000FE8  0E00               	movlw	0
  3675   000FEA  6E1F               	movwf	(login_screen@pass_count+1)^0,c
  3676   000FEC  0E00               	movlw	0
  3677   000FEE  6E1E               	movwf	login_screen@pass_count^0,c
  3678   000FF0  0E00               	movlw	0
  3679   000FF2  0100               	movlb	0	; () banked
  3680   000FF4  6FCD               	movwf	(login_screen@pass_complet+1)& (0+255),b
  3681   000FF6  0E00               	movlw	0
  3682   000FF8  6FCC               	movwf	login_screen@pass_complet& (0+255),b
  3683   000FFA  EF2E  F009         	goto	l223
  3684   000FFE                     l3642:
  3685                           
  3686                           ;black_box.c: 194:         return;
  3687   000FFE  EF2E  F009         	goto	l223
  3688   001002                     l3644:
  3689                           
  3690                           ;black_box.c: 196:         if(pass_complet)
  3691   001002  0100               	movlb	0	; () banked
  3692   001004  51CC               	movf	login_screen@pass_complet& (0+255),w,b
  3693   001006  11CD               	iorwf	(login_screen@pass_complet+1)& (0+255),w,b
  3694   001008  B4D8               	btfsc	status,2,c
  3695   00100A  EF09  F008         	goto	u2361
  3696   00100E  EF0B  F008         	goto	u2360
  3697   001012                     u2361:
  3698   001012  EF2E  F009         	goto	l223
  3699   001016                     u2360:
  3700   001016                     
  3701                           ; BSR set to: 0
  3702                           ;black_box.c: 197:         {;black_box.c: 198:             GIE=0,E_P_T=4,at_fail=120;
  3703   001016  9EF2               	bcf	4082,7,c	;volatile
  3704   001018                     
  3705                           ; BSR set to: 0
  3706   001018  0E00               	movlw	0
  3707   00101A  6F81               	movwf	(_E_P_T+1)& (0+255),b
  3708   00101C  0E04               	movlw	4
  3709   00101E  6F80               	movwf	_E_P_T& (0+255),b
  3710   001020  0E00               	movlw	0
  3711   001022  6E5A               	movwf	(_at_fail+1)^0,c
  3712   001024  0E78               	movlw	120
  3713   001026  6E59               	movwf	_at_fail^0,c
  3714   001028                     
  3715                           ; BSR set to: 0
  3716                           ;black_box.c: 199:             fetch_password();
  3717   001028  EC52  F013         	call	_fetch_password	;wreg free
  3718   00102C                     
  3719                           ;black_box.c: 200:             if ((strcmp(orig_pass,usr_pass))== 0)
  3720   00102C  0E9B               	movlw	low _orig_pass
  3721   00102E  6E32               	movwf	strcmp@l^0,c
  3722   001030  0EA0               	movlw	low _usr_pass
  3723   001032  6E33               	movwf	strcmp@r^0,c
  3724   001034  ECED  F011         	call	_strcmp	;wreg free
  3725   001038  5032               	movf	?_strcmp^0,w,c
  3726   00103A  1033               	iorwf	(?_strcmp+1)^0,w,c
  3727   00103C  A4D8               	btfss	status,2,c
  3728   00103E  EF23  F008         	goto	u2371
  3729   001042  EF25  F008         	goto	u2370
  3730   001046                     u2371:
  3731   001046  EF67  F008         	goto	l3684
  3732   00104A                     u2370:
  3733   00104A                     
  3734                           ;black_box.c: 201:             {;black_box.c: 202:                 clcd_write(0x01, 0);
  3735   00104A  0E00               	movlw	0
  3736   00104C  6E32               	movwf	clcd_write@control_bit^0,c
  3737   00104E  0E01               	movlw	1
  3738   001050  EC35  F013         	call	_clcd_write
  3739   001054                     
  3740                           ;black_box.c: 203:                 clcd_print("Main Menu",(0x80 + (0)));
  3741   001054  0EAD               	movlw	low STR_30
  3742   001056  6E34               	movwf	clcd_print@data^0,c
  3743   001058  0E2F               	movlw	high STR_30
  3744   00105A  6E35               	movwf	(clcd_print@data+1)^0,c
  3745   00105C  0E80               	movlw	128
  3746   00105E  6E36               	movwf	clcd_print@addr^0,c
  3747   001060  EC56  F011         	call	_clcd_print	;wreg free
  3748   001064                     
  3749                           ;black_box.c: 204:                 main_flag=2;
  3750   001064  0E00               	movlw	0
  3751   001066  6E27               	movwf	(_main_flag+1)^0,c
  3752   001068  0E02               	movlw	2
  3753   00106A  6E26               	movwf	_main_flag^0,c
  3754   00106C                     
  3755                           ;black_box.c: 205:                 key = 0xff;
  3756   00106C  0EFF               	movlw	255
  3757   00106E  6E28               	movwf	_key^0,c
  3758   001070  0E00               	movlw	0
  3759   001072  6E29               	movwf	(_key+1)^0,c
  3760   001074                     
  3761                           ;black_box.c: 206:                 GIE=0;E_P_T=4;at_fail=120;
  3762   001074  9EF2               	bcf	4082,7,c	;volatile
  3763   001076  0E00               	movlw	0
  3764   001078  0100               	movlb	0	; () banked
  3765   00107A  6F81               	movwf	(_E_P_T+1)& (0+255),b
  3766   00107C  0E04               	movlw	4
  3767   00107E  6F80               	movwf	_E_P_T& (0+255),b
  3768   001080                     
  3769                           ; BSR set to: 0
  3770   001080  0E00               	movlw	0
  3771   001082  6E5A               	movwf	(_at_fail+1)^0,c
  3772   001084  0E78               	movlw	120
  3773   001086  6E59               	movwf	_at_fail^0,c
  3774   001088                     
  3775                           ; BSR set to: 0
  3776                           ;black_box.c: 207:                 attempt=1; U_S=0; pass_count=0; pass_complet=0;
  3777   001088  0E00               	movlw	0
  3778   00108A  6E58               	movwf	(login_screen@attempt+1)^0,c
  3779   00108C  0E01               	movlw	1
  3780   00108E  6E57               	movwf	login_screen@attempt^0,c
  3781   001090                     
  3782                           ; BSR set to: 0
  3783   001090  0E00               	movlw	0
  3784   001092  6E21               	movwf	(login_screen@U_S+1)^0,c
  3785   001094  0E00               	movlw	0
  3786   001096  6E20               	movwf	login_screen@U_S^0,c
  3787   001098                     
  3788                           ; BSR set to: 0
  3789   001098  0E00               	movlw	0
  3790   00109A  6E1F               	movwf	(login_screen@pass_count+1)^0,c
  3791   00109C  0E00               	movlw	0
  3792   00109E  6E1E               	movwf	login_screen@pass_count^0,c
  3793   0010A0                     
  3794                           ; BSR set to: 0
  3795   0010A0  0E00               	movlw	0
  3796   0010A2  6FCD               	movwf	(login_screen@pass_complet+1)& (0+255),b
  3797   0010A4  0E00               	movlw	0
  3798   0010A6  6FCC               	movwf	login_screen@pass_complet& (0+255),b
  3799   0010A8                     
  3800                           ; BSR set to: 0
  3801                           ;black_box.c: 208:                 _delay((unsigned long)((1500)*(20000000/4000.0)));
  3802   0010A8  0E27               	movlw	39
  3803   0010AA  6E43               	movwf	(??_login_screen+1)^0,c
  3804   0010AC  0E0D               	movlw	13
  3805   0010AE  6E42               	movwf	??_login_screen^0,c
  3806   0010B0  0E26               	movlw	38
  3807   0010B2                     u3367:
  3808   0010B2  2EE8               	decfsz	wreg,f,c
  3809   0010B4  D7FE               	bra	u3367
  3810   0010B6  2E42               	decfsz	??_login_screen^0,f,c
  3811   0010B8  D7FC               	bra	u3367
  3812   0010BA  2E43               	decfsz	(??_login_screen+1)^0,f,c
  3813   0010BC  D7FA               	bra	u3367
  3814   0010BE  D000               	nop2	
  3815   0010C0                     
  3816                           ;black_box.c: 209:                 clcd_write(0x01, 0);
  3817   0010C0  0E00               	movlw	0
  3818   0010C2  6E32               	movwf	clcd_write@control_bit^0,c
  3819   0010C4  0E01               	movlw	1
  3820   0010C6  EC35  F013         	call	_clcd_write
  3821   0010CA  EF2E  F009         	goto	l223
  3822   0010CE                     l3684:
  3823   0010CE  BE58               	btfsc	(login_screen@attempt+1)^0,7,c
  3824   0010D0  EF75  F008         	goto	u2380
  3825   0010D4  5058               	movf	(login_screen@attempt+1)^0,w,c
  3826   0010D6  E107               	bnz	u2381
  3827   0010D8  0E03               	movlw	3
  3828   0010DA  5C57               	subwf	login_screen@attempt^0,w,c
  3829   0010DC  B0D8               	btfsc	status,0,c
  3830   0010DE  EF73  F008         	goto	u2381
  3831   0010E2  EF75  F008         	goto	u2380
  3832   0010E6                     u2381:
  3833   0010E6  EFAD  F008         	goto	l3704
  3834   0010EA                     u2380:
  3835   0010EA                     
  3836                           ;black_box.c: 213:             {;black_box.c: 214:                 clcd_write(0x01, 0);
  3837   0010EA  0E00               	movlw	0
  3838   0010EC  6E32               	movwf	clcd_write@control_bit^0,c
  3839   0010EE  0E01               	movlw	1
  3840   0010F0  EC35  F013         	call	_clcd_write
  3841   0010F4                     
  3842                           ;black_box.c: 215:                 clcd_print("wrong password",(0x80 + (0)));
  3843   0010F4  0E3B               	movlw	low STR_31
  3844   0010F6  6E34               	movwf	clcd_print@data^0,c
  3845   0010F8  0E2F               	movlw	high STR_31
  3846   0010FA  6E35               	movwf	(clcd_print@data+1)^0,c
  3847   0010FC  0E80               	movlw	128
  3848   0010FE  6E36               	movwf	clcd_print@addr^0,c
  3849   001100  EC56  F011         	call	_clcd_print	;wreg free
  3850   001104                     
  3851                           ;black_box.c: 216:                 clcd_print("ATTEMPT LEFT",(0xC0 + (0)));
  3852   001104  0E58               	movlw	low STR_32
  3853   001106  6E34               	movwf	clcd_print@data^0,c
  3854   001108  0E2F               	movlw	high STR_32
  3855   00110A  6E35               	movwf	(clcd_print@data+1)^0,c
  3856   00110C  0EC0               	movlw	192
  3857   00110E  6E36               	movwf	clcd_print@addr^0,c
  3858   001110  EC56  F011         	call	_clcd_print	;wreg free
  3859   001114                     
  3860                           ;black_box.c: 217:                 clcd_putch((char)(3-attempt)+48,(0xC0 + (13)));
  3861   001114  0ECD               	movlw	205
  3862   001116  6E40               	movwf	clcd_putch@addr^0,c
  3863   001118  5057               	movf	login_screen@attempt^0,w,c
  3864   00111A  0833               	sublw	51
  3865   00111C  ECCF  F013         	call	_clcd_putch
  3866   001120                     
  3867                           ;black_box.c: 218:                 _delay((unsigned long)((2000)*(20000000/4000.0)));
  3868   001120  0E33               	movlw	51
  3869   001122  6E43               	movwf	(??_login_screen+1)^0,c
  3870   001124  0EBB               	movlw	187
  3871   001126  6E42               	movwf	??_login_screen^0,c
  3872   001128  0EE0               	movlw	224
  3873   00112A                     u3377:
  3874   00112A  2EE8               	decfsz	wreg,f,c
  3875   00112C  D7FE               	bra	u3377
  3876   00112E  2E42               	decfsz	??_login_screen^0,f,c
  3877   001130  D7FC               	bra	u3377
  3878   001132  2E43               	decfsz	(??_login_screen+1)^0,f,c
  3879   001134  D7FA               	bra	u3377
  3880   001136                     
  3881                           ;black_box.c: 219:                 clcd_write(0x01, 0);
  3882   001136  0E00               	movlw	0
  3883   001138  6E32               	movwf	clcd_write@control_bit^0,c
  3884   00113A  0E01               	movlw	1
  3885   00113C  EC35  F013         	call	_clcd_write
  3886   001140                     
  3887                           ;black_box.c: 220:                 pass_count=0;
  3888   001140  0E00               	movlw	0
  3889   001142  6E1F               	movwf	(login_screen@pass_count+1)^0,c
  3890   001144  0E00               	movlw	0
  3891   001146  6E1E               	movwf	login_screen@pass_count^0,c
  3892   001148                     
  3893                           ;black_box.c: 221:                 pass_complet=0;
  3894   001148  0E00               	movlw	0
  3895   00114A  0100               	movlb	0	; () banked
  3896   00114C  6FCD               	movwf	(login_screen@pass_complet+1)& (0+255),b
  3897   00114E  0E00               	movlw	0
  3898   001150  6FCC               	movwf	login_screen@pass_complet& (0+255),b
  3899   001152                     
  3900                           ; BSR set to: 0
  3901                           ;black_box.c: 222:                 attempt++;
  3902   001152  4A57               	infsnz	login_screen@attempt^0,f,c
  3903   001154  2A58               	incf	(login_screen@attempt+1)^0,f,c
  3904                           
  3905                           ;black_box.c: 223:             }
  3906   001156  EF2E  F009         	goto	l223
  3907   00115A                     l3704:
  3908   00115A  BE58               	btfsc	(login_screen@attempt+1)^0,7,c
  3909   00115C  EFB9  F008         	goto	u2391
  3910   001160  5058               	movf	(login_screen@attempt+1)^0,w,c
  3911   001162  E109               	bnz	u2390
  3912   001164  0E03               	movlw	3
  3913   001166  5C57               	subwf	login_screen@attempt^0,w,c
  3914   001168  A0D8               	btfss	status,0,c
  3915   00116A  EFB9  F008         	goto	u2391
  3916   00116E  EFBB  F008         	goto	u2390
  3917   001172                     u2391:
  3918   001172  EFFF  F007         	goto	l3642
  3919   001176                     u2390:
  3920   001176                     
  3921                           ;black_box.c: 225:             {;black_box.c: 226:                 GIE = 1;
  3922   001176  8EF2               	bsf	4082,7,c	;volatile
  3923   001178                     
  3924                           ;black_box.c: 227:                 clcd_write(0x01, 0);
  3925   001178  0E00               	movlw	0
  3926   00117A  6E32               	movwf	clcd_write@control_bit^0,c
  3927   00117C  0E01               	movlw	1
  3928   00117E  EC35  F013         	call	_clcd_write
  3929   001182                     l3710:
  3930                           
  3931                           ;black_box.c: 229:                     {;black_box.c: 230:                         clcd_
      +                          print("Wait ...For",(0x80 + (0)));
  3932   001182  0E8C               	movlw	low STR_33
  3933   001184  6E34               	movwf	clcd_print@data^0,c
  3934   001186  0E2F               	movlw	high STR_33
  3935   001188  6E35               	movwf	(clcd_print@data+1)^0,c
  3936   00118A  0E80               	movlw	128
  3937   00118C  6E36               	movwf	clcd_print@addr^0,c
  3938   00118E  EC56  F011         	call	_clcd_print	;wreg free
  3939   001192                     
  3940                           ;black_box.c: 231:                         clcd_putch((at_fail%10)+48,(0xC0 + (2)));
  3941   001192  0EC2               	movlw	194
  3942   001194  6E40               	movwf	clcd_putch@addr^0,c
  3943   001196  C059  F03A         	movff	_at_fail,___awmod@dividend
  3944   00119A  C05A  F03B         	movff	_at_fail+1,___awmod@dividend+1
  3945   00119E  0E00               	movlw	0
  3946   0011A0  6E3D               	movwf	(___awmod@divisor+1)^0,c
  3947   0011A2  0E0A               	movlw	10
  3948   0011A4  6E3C               	movwf	___awmod@divisor^0,c
  3949   0011A6  ECBC  F00F         	call	___awmod	;wreg free
  3950   0011AA  503A               	movf	?___awmod^0,w,c
  3951   0011AC  0F30               	addlw	48
  3952   0011AE  ECCF  F013         	call	_clcd_putch
  3953   0011B2                     
  3954                           ;black_box.c: 232:                         clcd_putch((at_fail/10)%10 + 48,(0xC0 + (1)))
      +                          ;
  3955   0011B2  0EC1               	movlw	193
  3956   0011B4  6E40               	movwf	clcd_putch@addr^0,c
  3957   0011B6  0E00               	movlw	0
  3958   0011B8  6E35               	movwf	(___awdiv@divisor+1)^0,c
  3959   0011BA  0E0A               	movlw	10
  3960   0011BC  6E34               	movwf	___awdiv@divisor^0,c
  3961   0011BE  C059  F032         	movff	_at_fail,___awdiv@dividend
  3962   0011C2  C05A  F033         	movff	_at_fail+1,___awdiv@dividend+1
  3963   0011C6  EC5A  F00F         	call	___awdiv	;wreg free
  3964   0011CA  C032  F03A         	movff	?___awdiv,___awmod@dividend
  3965   0011CE  C033  F03B         	movff	?___awdiv+1,___awmod@dividend+1
  3966   0011D2  0E00               	movlw	0
  3967   0011D4  6E3D               	movwf	(___awmod@divisor+1)^0,c
  3968   0011D6  0E0A               	movlw	10
  3969   0011D8  6E3C               	movwf	___awmod@divisor^0,c
  3970   0011DA  ECBC  F00F         	call	___awmod	;wreg free
  3971   0011DE  503A               	movf	?___awmod^0,w,c
  3972   0011E0  0F30               	addlw	48
  3973   0011E2  ECCF  F013         	call	_clcd_putch
  3974   0011E6                     
  3975                           ;black_box.c: 233:                         clcd_putch(((at_fail/100)%10) + 48,(0xC0 + (0
      +                          )));
  3976   0011E6  0EC0               	movlw	192
  3977   0011E8  6E40               	movwf	clcd_putch@addr^0,c
  3978   0011EA  0E00               	movlw	0
  3979   0011EC  6E35               	movwf	(___awdiv@divisor+1)^0,c
  3980   0011EE  0E64               	movlw	100
  3981   0011F0  6E34               	movwf	___awdiv@divisor^0,c
  3982   0011F2  C059  F032         	movff	_at_fail,___awdiv@dividend
  3983   0011F6  C05A  F033         	movff	_at_fail+1,___awdiv@dividend+1
  3984   0011FA  EC5A  F00F         	call	___awdiv	;wreg free
  3985   0011FE  C032  F03A         	movff	?___awdiv,___awmod@dividend
  3986   001202  C033  F03B         	movff	?___awdiv+1,___awmod@dividend+1
  3987   001206  0E00               	movlw	0
  3988   001208  6E3D               	movwf	(___awmod@divisor+1)^0,c
  3989   00120A  0E0A               	movlw	10
  3990   00120C  6E3C               	movwf	___awmod@divisor^0,c
  3991   00120E  ECBC  F00F         	call	___awmod	;wreg free
  3992   001212  503A               	movf	?___awmod^0,w,c
  3993   001214  0F30               	addlw	48
  3994   001216  ECCF  F013         	call	_clcd_putch
  3995   00121A                     
  3996                           ;black_box.c: 234:                         clcd_print("... sec",(0xC0 + (3)));
  3997   00121A  0EDC               	movlw	low STR_34
  3998   00121C  6E34               	movwf	clcd_print@data^0,c
  3999   00121E  0E2F               	movlw	high STR_34
  4000   001220  6E35               	movwf	(clcd_print@data+1)^0,c
  4001   001222  0EC3               	movlw	195
  4002   001224  6E36               	movwf	clcd_print@addr^0,c
  4003   001226  EC56  F011         	call	_clcd_print	;wreg free
  4004   00122A                     
  4005                           ;black_box.c: 235:                         if(at_fail == 0 )
  4006   00122A  5059               	movf	_at_fail^0,w,c
  4007   00122C  105A               	iorwf	(_at_fail+1)^0,w,c
  4008   00122E  A4D8               	btfss	status,2,c
  4009   001230  EF1C  F009         	goto	u2401
  4010   001234  EF1E  F009         	goto	u2400
  4011   001238                     u2401:
  4012   001238  EFC1  F008         	goto	l3710
  4013   00123C                     u2400:
  4014   00123C                     
  4015                           ;black_box.c: 236:                         {;black_box.c: 237:                          
      +                             clcd_write(0x01, 0);
  4016   00123C  0E00               	movlw	0
  4017   00123E  6E32               	movwf	clcd_write@control_bit^0,c
  4018   001240  0E01               	movlw	1
  4019   001242  EC35  F013         	call	_clcd_write
  4020   001246                     
  4021                           ;black_box.c: 238:                             GIE = 0;at_fail=120;
  4022   001246  9EF2               	bcf	4082,7,c	;volatile
  4023   001248  0E00               	movlw	0
  4024   00124A  6E5A               	movwf	(_at_fail+1)^0,c
  4025   00124C  0E78               	movlw	120
  4026   00124E  6E59               	movwf	_at_fail^0,c
  4027   001250                     
  4028                           ;black_box.c: 239:                             main_flag=0;
  4029   001250  0E00               	movlw	0
  4030   001252  6E27               	movwf	(_main_flag+1)^0,c
  4031   001254  0E00               	movlw	0
  4032   001256  6E26               	movwf	_main_flag^0,c
  4033   001258  EFEC  F007         	goto	l3634
  4034   00125C                     l223:
  4035   00125C  0012               	return		;funcret
  4036   00125E                     __end_of_login_screen:
  4037                           	callstack 0
  4038                           
  4039 ;; *************** function _init_config *****************
  4040 ;; Defined at:
  4041 ;;		line 14 in file "MAIN.c"
  4042 ;; Parameters:    Size  Location     Type
  4043 ;;		None
  4044 ;; Auto vars:     Size  Location     Type
  4045 ;;		None
  4046 ;; Return value:  Size  Location     Type
  4047 ;;                  1    wreg      void 
  4048 ;; Registers used:
  4049 ;;		wreg, status,2, status,0, cstack
  4050 ;; Tracked objects:
  4051 ;;		On entry : 0/0
  4052 ;;		On exit  : 0/0
  4053 ;;		Unchanged: 0/0
  4054 ;; Data sizes:     COMRAM   BANK0   BANK1   BANK2   BANK3   BANK4   BANK5
  4055 ;;      Params:         0       0       0       0       0       0       0
  4056 ;;      Locals:         0       0       0       0       0       0       0
  4057 ;;      Temps:          0       0       0       0       0       0       0
  4058 ;;      Totals:         0       0       0       0       0       0       0
  4059 ;;Total ram usage:        0 bytes
  4060 ;; Hardware stack levels used: 1
  4061 ;; Hardware stack levels required when called: 6
  4062 ;; This function calls:
  4063 ;;		_fetch_password
  4064 ;;		_init_adc
  4065 ;;		_init_clcd
  4066 ;;		_init_ds1307
  4067 ;;		_init_i2c
  4068 ;;		_init_matrix_keypad
  4069 ;;		_init_timer0
  4070 ;;		_write_external_eeprom
  4071 ;; This function is called by:
  4072 ;;		_main
  4073 ;; This function uses a non-reentrant model
  4074 ;;
  4075                           
  4076                           	psect	text7
  4077   0024D8                     __ptext7:
  4078                           	callstack 0
  4079   0024D8                     _init_config:
  4080                           	callstack 24
  4081   0024D8                     
  4082                           ;MAIN.c: 16:     init_clcd();
  4083   0024D8  EC14  F010         	call	_init_clcd	;wreg free
  4084   0024DC                     
  4085                           ;MAIN.c: 17:     init_adc();
  4086   0024DC  ECB3  F013         	call	_init_adc	;wreg free
  4087   0024E0                     
  4088                           ;MAIN.c: 18:     init_matrix_keypad();
  4089   0024E0  EC0F  F014         	call	_init_matrix_keypad	;wreg free
  4090   0024E4                     
  4091                           ;MAIN.c: 19:     init_timer0();
  4092   0024E4  ECC2  F013         	call	_init_timer0	;wreg free
  4093   0024E8                     
  4094                           ;MAIN.c: 20:     init_i2c();
  4095   0024E8  ECDB  F013         	call	_init_i2c	;wreg free
  4096   0024EC                     
  4097                           ;MAIN.c: 21:  init_ds1307();
  4098   0024EC  EC8F  F012         	call	_init_ds1307	;wreg free
  4099   0024F0                     
  4100                           ;MAIN.c: 22:    write_external_eeprom(101,'0');
  4101   0024F0  0E30               	movlw	48
  4102   0024F2  6E33               	movwf	write_external_eeprom@data^0,c
  4103   0024F4  0E65               	movlw	101
  4104   0024F6  EC15  F013         	call	_write_external_eeprom
  4105   0024FA                     
  4106                           ;MAIN.c: 23:    write_external_eeprom(102,'0');
  4107   0024FA  0E30               	movlw	48
  4108   0024FC  6E33               	movwf	write_external_eeprom@data^0,c
  4109   0024FE  0E66               	movlw	102
  4110   002500  EC15  F013         	call	_write_external_eeprom
  4111   002504                     
  4112                           ;MAIN.c: 24:    write_external_eeprom(103,'0');
  4113   002504  0E30               	movlw	48
  4114   002506  6E33               	movwf	write_external_eeprom@data^0,c
  4115   002508  0E67               	movlw	103
  4116   00250A  EC15  F013         	call	_write_external_eeprom
  4117   00250E                     
  4118                           ;MAIN.c: 25:    write_external_eeprom(104,'0');
  4119   00250E  0E30               	movlw	48
  4120   002510  6E33               	movwf	write_external_eeprom@data^0,c
  4121   002512  0E68               	movlw	104
  4122   002514  EC15  F013         	call	_write_external_eeprom
  4123   002518                     
  4124                           ;MAIN.c: 26:     fetch_password();
  4125   002518  EC52  F013         	call	_fetch_password	;wreg free
  4126   00251C  0012               	return		;funcret
  4127   00251E                     __end_of_init_config:
  4128                           	callstack 0
  4129                           
  4130 ;; *************** function _init_timer0 *****************
  4131 ;; Defined at:
  4132 ;;		line 12 in file "timer0_p.c"
  4133 ;; Parameters:    Size  Location     Type
  4134 ;;		None
  4135 ;; Auto vars:     Size  Location     Type
  4136 ;;		None
  4137 ;; Return value:  Size  Location     Type
  4138 ;;                  1    wreg      void 
  4139 ;; Registers used:
  4140 ;;		wreg, status,2
  4141 ;; Tracked objects:
  4142 ;;		On entry : 0/0
  4143 ;;		On exit  : 0/0
  4144 ;;		Unchanged: 0/0
  4145 ;; Data sizes:     COMRAM   BANK0   BANK1   BANK2   BANK3   BANK4   BANK5
  4146 ;;      Params:         0       0       0       0       0       0       0
  4147 ;;      Locals:         0       0       0       0       0       0       0
  4148 ;;      Temps:          0       0       0       0       0       0       0
  4149 ;;      Totals:         0       0       0       0       0       0       0
  4150 ;;Total ram usage:        0 bytes
  4151 ;; Hardware stack levels used: 1
  4152 ;; Hardware stack levels required when called: 1
  4153 ;; This function calls:
  4154 ;;		Nothing
  4155 ;; This function is called by:
  4156 ;;		_init_config
  4157 ;; This function uses a non-reentrant model
  4158 ;;
  4159                           
  4160                           	psect	text8
  4161   002784                     __ptext8:
  4162                           	callstack 0
  4163   002784                     _init_timer0:
  4164                           	callstack 28
  4165   002784                     
  4166                           ;timer0_p.c: 15:     GIE=0;
  4167   002784  9EF2               	bcf	4082,7,c	;volatile
  4168                           
  4169                           ;timer0_p.c: 16:     PEIE=1;
  4170   002786  8CF2               	bsf	4082,6,c	;volatile
  4171                           
  4172                           ;timer0_p.c: 17:     TMR0IE=1;
  4173   002788  8AF2               	bsf	4082,5,c	;volatile
  4174                           
  4175                           ;timer0_p.c: 18:     TMR0IF=0;
  4176   00278A  94F2               	bcf	4082,2,c	;volatile
  4177   00278C                     
  4178                           ;timer0_p.c: 21:     TMR0=6;
  4179   00278C  0E00               	movlw	0
  4180   00278E  6ED7               	movwf	215,c	;volatile
  4181   002790  0E06               	movlw	6
  4182   002792  6ED6               	movwf	214,c	;volatile
  4183   002794                     
  4184                           ;timer0_p.c: 22:     TMR0ON=1;
  4185   002794  8ED5               	bsf	4053,7,c	;volatile
  4186   002796                     
  4187                           ;timer0_p.c: 23:     T08BIT=1;
  4188   002796  8CD5               	bsf	4053,6,c	;volatile
  4189   002798                     
  4190                           ;timer0_p.c: 24:     T0CS=0;
  4191   002798  9AD5               	bcf	4053,5,c	;volatile
  4192   00279A                     
  4193                           ;timer0_p.c: 25:     PSA=1;
  4194   00279A  86D5               	bsf	4053,3,c	;volatile
  4195   00279C  0012               	return		;funcret
  4196   00279E                     __end_of_init_timer0:
  4197                           	callstack 0
  4198                           
  4199 ;; *************** function _init_matrix_keypad *****************
  4200 ;; Defined at:
  4201 ;;		line 12 in file "marix_keypad_p.c"
  4202 ;; Parameters:    Size  Location     Type
  4203 ;;		None
  4204 ;; Auto vars:     Size  Location     Type
  4205 ;;		None
  4206 ;; Return value:  Size  Location     Type
  4207 ;;                  1    wreg      void 
  4208 ;; Registers used:
  4209 ;;		wreg, status,2
  4210 ;; Tracked objects:
  4211 ;;		On entry : 0/0
  4212 ;;		On exit  : 0/0
  4213 ;;		Unchanged: 0/0
  4214 ;; Data sizes:     COMRAM   BANK0   BANK1   BANK2   BANK3   BANK4   BANK5
  4215 ;;      Params:         0       0       0       0       0       0       0
  4216 ;;      Locals:         0       0       0       0       0       0       0
  4217 ;;      Temps:          0       0       0       0       0       0       0
  4218 ;;      Totals:         0       0       0       0       0       0       0
  4219 ;;Total ram usage:        0 bytes
  4220 ;; Hardware stack levels used: 1
  4221 ;; Hardware stack levels required when called: 1
  4222 ;; This function calls:
  4223 ;;		Nothing
  4224 ;; This function is called by:
  4225 ;;		_init_config
  4226 ;; This function uses a non-reentrant model
  4227 ;;
  4228                           
  4229                           	psect	text9
  4230   00281E                     __ptext9:
  4231                           	callstack 0
  4232   00281E                     _init_matrix_keypad:
  4233                           	callstack 28
  4234   00281E                     
  4235                           ;marix_keypad_p.c: 14:     TRISB = 0x1E;
  4236   00281E  0E1E               	movlw	30
  4237   002820  6E93               	movwf	147,c	;volatile
  4238   002822                     
  4239                           ;marix_keypad_p.c: 15:     RBPU = 0;
  4240   002822  9EF1               	bcf	4081,7,c	;volatile
  4241   002824  0012               	return		;funcret
  4242   002826                     __end_of_init_matrix_keypad:
  4243                           	callstack 0
  4244                           
  4245 ;; *************** function _init_i2c *****************
  4246 ;; Defined at:
  4247 ;;		line 12 in file "i2c_p.c"
  4248 ;; Parameters:    Size  Location     Type
  4249 ;;		None
  4250 ;; Auto vars:     Size  Location     Type
  4251 ;;		None
  4252 ;; Return value:  Size  Location     Type
  4253 ;;                  1    wreg      void 
  4254 ;; Registers used:
  4255 ;;		wreg, status,2
  4256 ;; Tracked objects:
  4257 ;;		On entry : 0/0
  4258 ;;		On exit  : 0/0
  4259 ;;		Unchanged: 0/0
  4260 ;; Data sizes:     COMRAM   BANK0   BANK1   BANK2   BANK3   BANK4   BANK5
  4261 ;;      Params:         0       0       0       0       0       0       0
  4262 ;;      Locals:         0       0       0       0       0       0       0
  4263 ;;      Temps:          0       0       0       0       0       0       0
  4264 ;;      Totals:         0       0       0       0       0       0       0
  4265 ;;Total ram usage:        0 bytes
  4266 ;; Hardware stack levels used: 1
  4267 ;; Hardware stack levels required when called: 1
  4268 ;; This function calls:
  4269 ;;		Nothing
  4270 ;; This function is called by:
  4271 ;;		_init_config
  4272 ;; This function uses a non-reentrant model
  4273 ;;
  4274                           
  4275                           	psect	text10
  4276   0027B6                     __ptext10:
  4277                           	callstack 0
  4278   0027B6                     _init_i2c:
  4279                           	callstack 28
  4280   0027B6                     
  4281                           ;i2c_p.c: 15:  TRISC3 = 1;
  4282   0027B6  8694               	bsf	3988,3,c	;volatile
  4283                           
  4284                           ;i2c_p.c: 16:  TRISC4 = 1;
  4285   0027B8  8894               	bsf	3988,4,c	;volatile
  4286   0027BA                     
  4287                           ;i2c_p.c: 18:  SSPCON1 = 0x28;
  4288   0027BA  0E28               	movlw	40
  4289   0027BC  6EC6               	movwf	198,c	;volatile
  4290                           
  4291                           ;i2c_p.c: 20:  SSPADD = 0x31;
  4292   0027BE  0E31               	movlw	49
  4293   0027C0  6EC8               	movwf	200,c	;volatile
  4294   0027C2                     
  4295                           ;i2c_p.c: 22:  CKE = 0;
  4296   0027C2  9CC7               	bcf	4039,6,c	;volatile
  4297   0027C4                     
  4298                           ;i2c_p.c: 24:  SMP = 1;
  4299   0027C4  8EC7               	bsf	4039,7,c	;volatile
  4300   0027C6                     
  4301                           ;i2c_p.c: 26:  SSPIF = 0;
  4302   0027C6  969E               	bcf	3998,3,c	;volatile
  4303   0027C8                     
  4304                           ;i2c_p.c: 28:  BCLIF = 0;
  4305   0027C8  96A1               	bcf	4001,3,c	;volatile
  4306   0027CA  0012               	return		;funcret
  4307   0027CC                     __end_of_init_i2c:
  4308                           	callstack 0
  4309                           
  4310 ;; *************** function _init_ds1307 *****************
  4311 ;; Defined at:
  4312 ;;		line 18 in file "ds1307_p.c"
  4313 ;; Parameters:    Size  Location     Type
  4314 ;;		None
  4315 ;; Auto vars:     Size  Location     Type
  4316 ;;  dummy           1    3[COMRAM] unsigned char 
  4317 ;; Return value:  Size  Location     Type
  4318 ;;                  1    wreg      void 
  4319 ;; Registers used:
  4320 ;;		wreg, status,2, status,0, cstack
  4321 ;; Tracked objects:
  4322 ;;		On entry : 0/0
  4323 ;;		On exit  : 0/0
  4324 ;;		Unchanged: 0/0
  4325 ;; Data sizes:     COMRAM   BANK0   BANK1   BANK2   BANK3   BANK4   BANK5
  4326 ;;      Params:         0       0       0       0       0       0       0
  4327 ;;      Locals:         1       0       0       0       0       0       0
  4328 ;;      Temps:          0       0       0       0       0       0       0
  4329 ;;      Totals:         1       0       0       0       0       0       0
  4330 ;;Total ram usage:        1 bytes
  4331 ;; Hardware stack levels used: 1
  4332 ;; Hardware stack levels required when called: 5
  4333 ;; This function calls:
  4334 ;;		_read_ds1307
  4335 ;;		_write_ds1307
  4336 ;; This function is called by:
  4337 ;;		_init_config
  4338 ;; This function uses a non-reentrant model
  4339 ;;
  4340                           
  4341                           	psect	text11
  4342   00251E                     __ptext11:
  4343                           	callstack 0
  4344   00251E                     _init_ds1307:
  4345                           	callstack 24
  4346   00251E                     
  4347                           ;ds1307_p.c: 20:  unsigned char dummy;;ds1307_p.c: 23:  dummy = read_ds1307(0x00);
  4348   00251E  0E00               	movlw	0
  4349   002520  EC67  F013         	call	_read_ds1307
  4350   002524  6E35               	movwf	init_ds1307@dummy^0,c
  4351   002526                     
  4352                           ;ds1307_p.c: 24:  write_ds1307(0x00, dummy | 0x80);
  4353   002526  5035               	movf	init_ds1307@dummy^0,w,c
  4354   002528  0980               	iorlw	128
  4355   00252A  6E33               	movwf	write_ds1307@data^0,c
  4356   00252C  0E00               	movlw	0
  4357   00252E  ECA4  F013         	call	_write_ds1307
  4358   002532                     
  4359                           ;ds1307_p.c: 27:  dummy = read_ds1307(0x02);
  4360   002532  0E02               	movlw	2
  4361   002534  EC67  F013         	call	_read_ds1307
  4362   002538  6E35               	movwf	init_ds1307@dummy^0,c
  4363   00253A                     
  4364                           ;ds1307_p.c: 28:  write_ds1307(0x02, dummy | 0x00);
  4365   00253A  C035  F033         	movff	init_ds1307@dummy,write_ds1307@data
  4366   00253E  0E02               	movlw	2
  4367   002540  ECA4  F013         	call	_write_ds1307
  4368   002544                     
  4369                           ;ds1307_p.c: 43:  write_ds1307(0x07, 0x93);
  4370   002544  0E93               	movlw	147
  4371   002546  6E33               	movwf	write_ds1307@data^0,c
  4372   002548  0E07               	movlw	7
  4373   00254A  ECA4  F013         	call	_write_ds1307
  4374   00254E                     
  4375                           ;ds1307_p.c: 46:  dummy = read_ds1307(0x00);
  4376   00254E  0E00               	movlw	0
  4377   002550  EC67  F013         	call	_read_ds1307
  4378   002554  6E35               	movwf	init_ds1307@dummy^0,c
  4379   002556                     
  4380                           ;ds1307_p.c: 47:  write_ds1307(0x00, dummy & 0x7F);
  4381   002556  5035               	movf	init_ds1307@dummy^0,w,c
  4382   002558  0B7F               	andlw	127
  4383   00255A  6E33               	movwf	write_ds1307@data^0,c
  4384   00255C  0E00               	movlw	0
  4385   00255E  ECA4  F013         	call	_write_ds1307
  4386   002562  0012               	return		;funcret
  4387   002564                     __end_of_init_ds1307:
  4388                           	callstack 0
  4389                           
  4390 ;; *************** function _write_ds1307 *****************
  4391 ;; Defined at:
  4392 ;;		line 51 in file "ds1307_p.c"
  4393 ;; Parameters:    Size  Location     Type
  4394 ;;  address         1    wreg     unsigned char 
  4395 ;;  data            1    1[COMRAM] unsigned char 
  4396 ;; Auto vars:     Size  Location     Type
  4397 ;;  address         1    2[COMRAM] unsigned char 
  4398 ;; Return value:  Size  Location     Type
  4399 ;;                  1    wreg      void 
  4400 ;; Registers used:
  4401 ;;		wreg, status,2, cstack
  4402 ;; Tracked objects:
  4403 ;;		On entry : 0/0
  4404 ;;		On exit  : 0/0
  4405 ;;		Unchanged: 0/0
  4406 ;; Data sizes:     COMRAM   BANK0   BANK1   BANK2   BANK3   BANK4   BANK5
  4407 ;;      Params:         1       0       0       0       0       0       0
  4408 ;;      Locals:         1       0       0       0       0       0       0
  4409 ;;      Temps:          0       0       0       0       0       0       0
  4410 ;;      Totals:         2       0       0       0       0       0       0
  4411 ;;Total ram usage:        2 bytes
  4412 ;; Hardware stack levels used: 1
  4413 ;; Hardware stack levels required when called: 3
  4414 ;; This function calls:
  4415 ;;		_i2c_start
  4416 ;;		_i2c_stop
  4417 ;;		_i2c_write
  4418 ;; This function is called by:
  4419 ;;		_set_time
  4420 ;;		_init_ds1307
  4421 ;; This function uses a non-reentrant model
  4422 ;;
  4423                           
  4424                           	psect	text12
  4425   002748                     __ptext12:
  4426                           	callstack 0
  4427   002748                     _write_ds1307:
  4428                           	callstack 26
  4429                           
  4430                           ;incstack = 0
  4431                           ;write_ds1307@address stored from wreg
  4432   002748  6E34               	movwf	write_ds1307@address^0,c
  4433   00274A                     
  4434                           ;ds1307_p.c: 51: void write_ds1307(unsigned char address, unsigned char data);ds1307_p.c
      +                          : 52: {;ds1307_p.c: 53:  i2c_start();
  4435   00274A  EC1F  F014         	call	_i2c_start	;wreg free
  4436   00274E                     
  4437                           ;ds1307_p.c: 54:  i2c_write(0xD0);
  4438   00274E  0ED0               	movlw	208
  4439   002750  EC09  F014         	call	_i2c_write
  4440   002754                     
  4441                           ;ds1307_p.c: 55:  i2c_write(address);
  4442   002754  5034               	movf	write_ds1307@address^0,w,c
  4443   002756  EC09  F014         	call	_i2c_write
  4444   00275A                     
  4445                           ;ds1307_p.c: 56:  i2c_write(data);
  4446   00275A  5033               	movf	write_ds1307@data^0,w,c
  4447   00275C  EC09  F014         	call	_i2c_write
  4448   002760                     
  4449                           ;ds1307_p.c: 57:  i2c_stop();
  4450   002760  EC1B  F014         	call	_i2c_stop	;wreg free
  4451   002764  0012               	return		;funcret
  4452   002766                     __end_of_write_ds1307:
  4453                           	callstack 0
  4454                           
  4455 ;; *************** function _init_clcd *****************
  4456 ;; Defined at:
  4457 ;;		line 35 in file "CLCD_P.c"
  4458 ;; Parameters:    Size  Location     Type
  4459 ;;		None
  4460 ;; Auto vars:     Size  Location     Type
  4461 ;;		None
  4462 ;; Return value:  Size  Location     Type
  4463 ;;                  1    wreg      void 
  4464 ;; Registers used:
  4465 ;;		wreg, status,2, status,0, cstack
  4466 ;; Tracked objects:
  4467 ;;		On entry : 0/0
  4468 ;;		On exit  : 0/0
  4469 ;;		Unchanged: 0/0
  4470 ;; Data sizes:     COMRAM   BANK0   BANK1   BANK2   BANK3   BANK4   BANK5
  4471 ;;      Params:         0       0       0       0       0       0       0
  4472 ;;      Locals:         0       0       0       0       0       0       0
  4473 ;;      Temps:          1       0       0       0       0       0       0
  4474 ;;      Totals:         1       0       0       0       0       0       0
  4475 ;;Total ram usage:        1 bytes
  4476 ;; Hardware stack levels used: 1
  4477 ;; Hardware stack levels required when called: 2
  4478 ;; This function calls:
  4479 ;;		_clcd_write
  4480 ;; This function is called by:
  4481 ;;		_init_config
  4482 ;; This function uses a non-reentrant model
  4483 ;;
  4484                           
  4485                           	psect	text13
  4486   002028                     __ptext13:
  4487                           	callstack 0
  4488   002028                     _init_clcd:
  4489                           	callstack 27
  4490   002028                     
  4491                           ;CLCD_P.c: 38:  TRISD = 0x00;
  4492   002028  0E00               	movlw	0
  4493   00202A  6E95               	movwf	149,c	;volatile
  4494   00202C                     
  4495                           ;CLCD_P.c: 40:  TRISC = TRISC & 0xF8;
  4496   00202C  5094               	movf	148,w,c	;volatile
  4497   00202E  0BF8               	andlw	248
  4498   002030  6E94               	movwf	148,c	;volatile
  4499   002032                     
  4500                           ;CLCD_P.c: 42:  RC0 = 0;
  4501   002032  9082               	bcf	3970,0,c	;volatile
  4502   002034                     
  4503                           ;CLCD_P.c: 46:     _delay((unsigned long)((30)*(20000000/4000.0)));
  4504   002034  0EC3               	movlw	195
  4505   002036  6E34               	movwf	??_init_clcd^0,c
  4506   002038  0ECD               	movlw	205
  4507   00203A                     u3387:
  4508   00203A  2EE8               	decfsz	wreg,f,c
  4509   00203C  D7FE               	bra	u3387
  4510   00203E  2E34               	decfsz	??_init_clcd^0,f,c
  4511   002040  D7FC               	bra	u3387
  4512   002042  0000               	nop	
  4513   002044                     
  4514                           ;CLCD_P.c: 49:     clcd_write(0x33, 0 );
  4515   002044  0E00               	movlw	0
  4516   002046  6E32               	movwf	clcd_write@control_bit^0,c
  4517   002048  0E33               	movlw	51
  4518   00204A  EC35  F013         	call	_clcd_write
  4519   00204E                     
  4520                           ;CLCD_P.c: 50:     _delay((unsigned long)((4100)*(20000000/4000000.0)));
  4521   00204E  0E1B               	movlw	27
  4522   002050  6E34               	movwf	??_init_clcd^0,c
  4523   002052  0E9E               	movlw	158
  4524   002054                     u3397:
  4525   002054  2EE8               	decfsz	wreg,f,c
  4526   002056  D7FE               	bra	u3397
  4527   002058  2E34               	decfsz	??_init_clcd^0,f,c
  4528   00205A  D7FC               	bra	u3397
  4529   00205C  D000               	nop2	
  4530   00205E                     
  4531                           ;CLCD_P.c: 51:     clcd_write(0x33, 0 );
  4532   00205E  0E00               	movlw	0
  4533   002060  6E32               	movwf	clcd_write@control_bit^0,c
  4534   002062  0E33               	movlw	51
  4535   002064  EC35  F013         	call	_clcd_write
  4536   002068                     
  4537                           ;CLCD_P.c: 52:     _delay((unsigned long)((100)*(20000000/4000000.0)));
  4538   002068  0EA6               	movlw	166
  4539   00206A                     u3407:
  4540   00206A  2EE8               	decfsz	wreg,f,c
  4541   00206C  D7FE               	bra	u3407
  4542   00206E  D000               	nop2	
  4543   002070                     
  4544                           ;CLCD_P.c: 53:     clcd_write(0x33, 0 );
  4545   002070  0E00               	movlw	0
  4546   002072  6E32               	movwf	clcd_write@control_bit^0,c
  4547   002074  0E33               	movlw	51
  4548   002076  EC35  F013         	call	_clcd_write
  4549   00207A                     
  4550                           ;CLCD_P.c: 54:     _delay((unsigned long)((1)*(20000000/4000000.0)));
  4551   00207A  D000               	nop2		;2 cycle nop
  4552   00207C  D000               	nop2		;2 cycle nop
  4553   00207E  0000               	nop	
  4554   002080                     
  4555                           ;CLCD_P.c: 56:     clcd_write(0x02, 0);
  4556   002080  0E00               	movlw	0
  4557   002082  6E32               	movwf	clcd_write@control_bit^0,c
  4558   002084  0E02               	movlw	2
  4559   002086  EC35  F013         	call	_clcd_write
  4560   00208A                     
  4561                           ;CLCD_P.c: 57:     _delay((unsigned long)((100)*(20000000/4000000.0)));
  4562   00208A  0EA6               	movlw	166
  4563   00208C                     u3417:
  4564   00208C  2EE8               	decfsz	wreg,f,c
  4565   00208E  D7FE               	bra	u3417
  4566   002090  D000               	nop2	
  4567   002092                     
  4568                           ;CLCD_P.c: 58:     clcd_write(0x38, 0);
  4569   002092  0E00               	movlw	0
  4570   002094  6E32               	movwf	clcd_write@control_bit^0,c
  4571   002096  0E38               	movlw	56
  4572   002098  EC35  F013         	call	_clcd_write
  4573   00209C                     
  4574                           ;CLCD_P.c: 59:     _delay((unsigned long)((100)*(20000000/4000000.0)));
  4575   00209C  0EA6               	movlw	166
  4576   00209E                     u3427:
  4577   00209E  2EE8               	decfsz	wreg,f,c
  4578   0020A0  D7FE               	bra	u3427
  4579   0020A2  D000               	nop2	
  4580   0020A4                     
  4581                           ;CLCD_P.c: 60:     clcd_write(0x01, 0);
  4582   0020A4  0E00               	movlw	0
  4583   0020A6  6E32               	movwf	clcd_write@control_bit^0,c
  4584   0020A8  0E01               	movlw	1
  4585   0020AA  EC35  F013         	call	_clcd_write
  4586   0020AE                     
  4587                           ;CLCD_P.c: 61:     _delay((unsigned long)((500)*(20000000/4000000.0)));
  4588   0020AE  0E04               	movlw	4
  4589   0020B0  6E34               	movwf	??_init_clcd^0,c
  4590   0020B2  0E3E               	movlw	62
  4591   0020B4                     u3437:
  4592   0020B4  2EE8               	decfsz	wreg,f,c
  4593   0020B6  D7FE               	bra	u3437
  4594   0020B8  2E34               	decfsz	??_init_clcd^0,f,c
  4595   0020BA  D7FC               	bra	u3437
  4596   0020BC                     
  4597                           ;CLCD_P.c: 62:     clcd_write(0x0C, 0);
  4598   0020BC  0E00               	movlw	0
  4599   0020BE  6E32               	movwf	clcd_write@control_bit^0,c
  4600   0020C0  0E0C               	movlw	12
  4601   0020C2  EC35  F013         	call	_clcd_write
  4602   0020C6                     
  4603                           ;CLCD_P.c: 63:     _delay((unsigned long)((100)*(20000000/4000000.0)));
  4604   0020C6  0EA6               	movlw	166
  4605   0020C8                     u3447:
  4606   0020C8  2EE8               	decfsz	wreg,f,c
  4607   0020CA  D7FE               	bra	u3447
  4608   0020CC  D000               	nop2	
  4609   0020CE  0012               	return		;funcret
  4610   0020D0                     __end_of_init_clcd:
  4611                           	callstack 0
  4612                           
  4613 ;; *************** function _init_adc *****************
  4614 ;; Defined at:
  4615 ;;		line 12 in file "adc_p.c"
  4616 ;; Parameters:    Size  Location     Type
  4617 ;;		None
  4618 ;; Auto vars:     Size  Location     Type
  4619 ;;		None
  4620 ;; Return value:  Size  Location     Type
  4621 ;;                  1    wreg      void 
  4622 ;; Registers used:
  4623 ;;		None
  4624 ;; Tracked objects:
  4625 ;;		On entry : 0/0
  4626 ;;		On exit  : 0/0
  4627 ;;		Unchanged: 0/0
  4628 ;; Data sizes:     COMRAM   BANK0   BANK1   BANK2   BANK3   BANK4   BANK5
  4629 ;;      Params:         0       0       0       0       0       0       0
  4630 ;;      Locals:         0       0       0       0       0       0       0
  4631 ;;      Temps:          0       0       0       0       0       0       0
  4632 ;;      Totals:         0       0       0       0       0       0       0
  4633 ;;Total ram usage:        0 bytes
  4634 ;; Hardware stack levels used: 1
  4635 ;; Hardware stack levels required when called: 1
  4636 ;; This function calls:
  4637 ;;		Nothing
  4638 ;; This function is called by:
  4639 ;;		_init_config
  4640 ;; This function uses a non-reentrant model
  4641 ;;
  4642                           
  4643                           	psect	text14
  4644   002766                     __ptext14:
  4645                           	callstack 0
  4646   002766                     _init_adc:
  4647                           	callstack 28
  4648   002766                     
  4649                           ;adc_p.c: 14:     ADON =1;
  4650   002766  80C2               	bsf	4034,0,c	;volatile
  4651                           
  4652                           ;adc_p.c: 15:     VCFG1=0;
  4653   002768  9AC1               	bcf	4033,5,c	;volatile
  4654                           
  4655                           ;adc_p.c: 16:     VCFG0=0;
  4656   00276A  98C1               	bcf	4033,4,c	;volatile
  4657                           
  4658                           ;adc_p.c: 18:     PCFG3=1;
  4659   00276C  86C1               	bsf	4033,3,c	;volatile
  4660                           
  4661                           ;adc_p.c: 19:     PCFG2=0;
  4662   00276E  94C1               	bcf	4033,2,c	;volatile
  4663                           
  4664                           ;adc_p.c: 20:     PCFG1=1;
  4665   002770  82C1               	bsf	4033,1,c	;volatile
  4666                           
  4667                           ;adc_p.c: 21:     PCFG0=0;
  4668   002772  90C1               	bcf	4033,0,c	;volatile
  4669                           
  4670                           ;adc_p.c: 23:     ADCS2=0;
  4671   002774  94C0               	bcf	4032,2,c	;volatile
  4672                           
  4673                           ;adc_p.c: 24:     ADCS1=1;
  4674   002776  82C0               	bsf	4032,1,c	;volatile
  4675                           
  4676                           ;adc_p.c: 25:     ADCS0=0;
  4677   002778  90C0               	bcf	4032,0,c	;volatile
  4678                           
  4679                           ;adc_p.c: 27:     ADFM=1;
  4680   00277A  8EC0               	bsf	4032,7,c	;volatile
  4681                           
  4682                           ;adc_p.c: 28:     ACQT2=1;
  4683   00277C  8AC0               	bsf	4032,5,c	;volatile
  4684                           
  4685                           ;adc_p.c: 29:     ACQT1=0;
  4686   00277E  98C0               	bcf	4032,4,c	;volatile
  4687                           
  4688                           ;adc_p.c: 30:     ACQT0=0;
  4689   002780  96C0               	bcf	4032,3,c	;volatile
  4690   002782  0012               	return		;funcret
  4691   002784                     __end_of_init_adc:
  4692                           	callstack 0
  4693                           
  4694 ;; *************** function _fetch_password *****************
  4695 ;; Defined at:
  4696 ;;		line 136 in file "black_box.c"
  4697 ;; Parameters:    Size  Location     Type
  4698 ;;		None
  4699 ;; Auto vars:     Size  Location     Type
  4700 ;;		None
  4701 ;; Return value:  Size  Location     Type
  4702 ;;                  1    wreg      void 
  4703 ;; Registers used:
  4704 ;;		wreg, status,2, status,0, cstack
  4705 ;; Tracked objects:
  4706 ;;		On entry : 0/0
  4707 ;;		On exit  : 0/0
  4708 ;;		Unchanged: 0/0
  4709 ;; Data sizes:     COMRAM   BANK0   BANK1   BANK2   BANK3   BANK4   BANK5
  4710 ;;      Params:         0       0       0       0       0       0       0
  4711 ;;      Locals:         0       0       0       0       0       0       0
  4712 ;;      Temps:          0       0       0       0       0       0       0
  4713 ;;      Totals:         0       0       0       0       0       0       0
  4714 ;;Total ram usage:        0 bytes
  4715 ;; Hardware stack levels used: 1
  4716 ;; Hardware stack levels required when called: 5
  4717 ;; This function calls:
  4718 ;;		_read_external_eeprom
  4719 ;; This function is called by:
  4720 ;;		_init_config
  4721 ;;		_login_screen
  4722 ;; This function uses a non-reentrant model
  4723 ;;
  4724                           
  4725                           	psect	text15
  4726   0026A4                     __ptext15:
  4727                           	callstack 0
  4728   0026A4                     _fetch_password:
  4729                           	callstack 24
  4730   0026A4                     
  4731                           ;black_box.c: 138:     orig_pass[0] = read_external_eeprom(101);
  4732   0026A4  0E65               	movlw	101
  4733   0026A6  EC46  F012         	call	_read_external_eeprom
  4734   0026AA  0100               	movlb	0	; () banked
  4735   0026AC  6F9B               	movwf	_orig_pass& (0+255),b
  4736                           
  4737                           ;black_box.c: 139:     orig_pass[1] = read_external_eeprom(102);
  4738   0026AE  0E66               	movlw	102
  4739   0026B0  EC46  F012         	call	_read_external_eeprom
  4740   0026B4  0100               	movlb	0	; () banked
  4741   0026B6  6F9C               	movwf	(_orig_pass+1)& (0+255),b
  4742                           
  4743                           ;black_box.c: 140:     orig_pass[2] = read_external_eeprom(103);
  4744   0026B8  0E67               	movlw	103
  4745   0026BA  EC46  F012         	call	_read_external_eeprom
  4746   0026BE  0100               	movlb	0	; () banked
  4747   0026C0  6F9D               	movwf	(_orig_pass+2)& (0+255),b
  4748                           
  4749                           ;black_box.c: 141:     orig_pass[3] = read_external_eeprom(104);
  4750   0026C2  0E68               	movlw	104
  4751   0026C4  EC46  F012         	call	_read_external_eeprom
  4752   0026C8  0100               	movlb	0	; () banked
  4753   0026CA  6F9E               	movwf	(_orig_pass+3)& (0+255),b
  4754   0026CC                     
  4755                           ; BSR set to: 0
  4756   0026CC  0012               	return		;funcret
  4757   0026CE                     __end_of_fetch_password:
  4758                           	callstack 0
  4759                           
  4760 ;; *************** function _downlode_log *****************
  4761 ;; Defined at:
  4762 ;;		line 648 in file "black_box.c"
  4763 ;; Parameters:    Size  Location     Type
  4764 ;;		None
  4765 ;; Auto vars:     Size  Location     Type
  4766 ;;  k               2  170[BANK1 ] int 
  4767 ;;  i               2  172[BANK1 ] int 
  4768 ;;  downlode_eve  170    0[BANK1 ] unsigned char [17][10]
  4769 ;; Return value:  Size  Location     Type
  4770 ;;                  1    wreg      void 
  4771 ;; Registers used:
  4772 ;;		wreg, fsr0l, fsr0h, fsr2l, fsr2h, status,2, status,0, tblptrl, tblptrh, tblptru, prodl, prodh, cstack
  4773 ;; Tracked objects:
  4774 ;;		On entry : 0/0
  4775 ;;		On exit  : 0/0
  4776 ;;		Unchanged: 0/0
  4777 ;; Data sizes:     COMRAM   BANK0   BANK1   BANK2   BANK3   BANK4   BANK5
  4778 ;;      Params:         0       0       0       0       0       0       0
  4779 ;;      Locals:         0       0     174       0       0       0       0
  4780 ;;      Temps:          2       0       0       0       0       0       0
  4781 ;;      Totals:         2       0     174       0       0       0       0
  4782 ;;Total ram usage:      176 bytes
  4783 ;; Hardware stack levels used: 1
  4784 ;; Hardware stack levels required when called: 6
  4785 ;; This function calls:
  4786 ;;		___wmul
  4787 ;;		_clcd_print
  4788 ;;		_clcd_write
  4789 ;;		_init_uart
  4790 ;;		_puts
  4791 ;;		_read_from_EEPROM
  4792 ;; This function is called by:
  4793 ;;		_main
  4794 ;; This function uses a non-reentrant model
  4795 ;;
  4796                           
  4797                           	psect	text16
  4798   000A36                     __ptext16:
  4799                           	callstack 0
  4800   000A36                     _downlode_log:
  4801                           	callstack 24
  4802   000A36                     
  4803                           ;black_box.c: 650:     if(event_count)
  4804   000A36  505B               	movf	_event_count^0,w,c
  4805   000A38  105C               	iorwf	(_event_count+1)^0,w,c
  4806   000A3A  B4D8               	btfsc	status,2,c
  4807   000A3C  EF22  F005         	goto	u2941
  4808   000A40  EF24  F005         	goto	u2940
  4809   000A44                     u2941:
  4810   000A44  EF13  F007         	goto	l4118
  4811   000A48                     u2940:
  4812   000A48                     
  4813                           ;black_box.c: 651:     {;black_box.c: 652:     clcd_print("downloding ...",(0x80 + (0)))
      +                          ;
  4814   000A48  0E2C               	movlw	low STR_43
  4815   000A4A  6E34               	movwf	clcd_print@data^0,c
  4816   000A4C  0E2F               	movlw	high STR_43
  4817   000A4E  6E35               	movwf	(clcd_print@data+1)^0,c
  4818   000A50  0E80               	movlw	128
  4819   000A52  6E36               	movwf	clcd_print@addr^0,c
  4820   000A54  EC56  F011         	call	_clcd_print	;wreg free
  4821   000A58                     
  4822                           ;black_box.c: 653:     unsigned char downlode_events[10][17];;black_box.c: 654:     for(
      +                          int i=0; i<=event_count; i++)
  4823   000A58  0E00               	movlw	0
  4824   000A5A  0101               	movlb	1	; () banked
  4825   000A5C  6FAD               	movwf	(downlode_log@i+1)& (0+255),b
  4826   000A5E  0E00               	movlw	0
  4827   000A60  6FAC               	movwf	downlode_log@i& (0+255),b
  4828   000A62  EFB9  F006         	goto	l4086
  4829   000A66                     l4082:
  4830                           
  4831                           ; BSR set to: 1
  4832                           ;black_box.c: 655:     {;black_box.c: 656:         read_from_EEPROM(i*10);
  4833   000A66  C1AC  F032         	movff	downlode_log@i,___wmul@multiplier
  4834   000A6A  C1AD  F033         	movff	downlode_log@i+1,___wmul@multiplier+1
  4835   000A6E  0E00               	movlw	0
  4836   000A70  6E35               	movwf	(___wmul@multiplicand+1)^0,c
  4837   000A72  0E0A               	movlw	10
  4838   000A74  6E34               	movwf	___wmul@multiplicand^0,c
  4839   000A76  EC91  F013         	call	___wmul	;wreg free
  4840   000A7A  C032  F038         	movff	?___wmul,read_from_EEPROM@j
  4841   000A7E  C033  F039         	movff	?___wmul+1,read_from_EEPROM@j+1
  4842   000A82  ECD5  F012         	call	_read_from_EEPROM	;wreg free
  4843                           
  4844                           ;black_box.c: 657:         downlode_events[i][0] = (i)+48;
  4845   000A86  C1AC  F032         	movff	downlode_log@i,___wmul@multiplier
  4846   000A8A  C1AD  F033         	movff	downlode_log@i+1,___wmul@multiplier+1
  4847   000A8E  0E00               	movlw	0
  4848   000A90  6E35               	movwf	(___wmul@multiplicand+1)^0,c
  4849   000A92  0E11               	movlw	17
  4850   000A94  6E34               	movwf	___wmul@multiplicand^0,c
  4851   000A96  EC91  F013         	call	___wmul	;wreg free
  4852   000A9A  0E00               	movlw	low downlode_log@downlode_events
  4853   000A9C  2432               	addwf	?___wmul^0,w,c
  4854   000A9E  6ED9               	movwf	fsr2l,c
  4855   000AA0  0E01               	movlw	high downlode_log@downlode_events
  4856   000AA2  2033               	addwfc	(?___wmul+1)^0,w,c
  4857   000AA4  6EDA               	movwf	fsr2h,c
  4858   000AA6  0101               	movlb	1	; () banked
  4859   000AA8  51AC               	movf	downlode_log@i& (0+255),w,b
  4860   000AAA  0F30               	addlw	48
  4861   000AAC  6EDF               	movwf	indf2,c
  4862                           
  4863                           ;black_box.c: 658:         downlode_events[i][1] = ' ';
  4864   000AAE  C1AC  F032         	movff	downlode_log@i,___wmul@multiplier
  4865   000AB2  C1AD  F033         	movff	downlode_log@i+1,___wmul@multiplier+1
  4866   000AB6  0E00               	movlw	0
  4867   000AB8  6E35               	movwf	(___wmul@multiplicand+1)^0,c
  4868   000ABA  0E11               	movlw	17
  4869   000ABC  6E34               	movwf	___wmul@multiplicand^0,c
  4870   000ABE  EC91  F013         	call	___wmul	;wreg free
  4871   000AC2  0E01               	movlw	1
  4872   000AC4  2632               	addwf	?___wmul^0,f,c
  4873   000AC6  0E00               	movlw	0
  4874   000AC8  2233               	addwfc	(?___wmul+1)^0,f,c
  4875   000ACA  0E00               	movlw	low downlode_log@downlode_events
  4876   000ACC  2432               	addwf	?___wmul^0,w,c
  4877   000ACE  6ED9               	movwf	fsr2l,c
  4878   000AD0  0E01               	movlw	high downlode_log@downlode_events
  4879   000AD2  2033               	addwfc	(?___wmul+1)^0,w,c
  4880   000AD4  6EDA               	movwf	fsr2h,c
  4881   000AD6  0E20               	movlw	32
  4882   000AD8  6EDF               	movwf	indf2,c
  4883                           
  4884                           ;black_box.c: 659:         downlode_events[i][2] = data[0];
  4885   000ADA  C1AC  F032         	movff	downlode_log@i,___wmul@multiplier
  4886   000ADE  C1AD  F033         	movff	downlode_log@i+1,___wmul@multiplier+1
  4887   000AE2  0E00               	movlw	0
  4888   000AE4  6E35               	movwf	(___wmul@multiplicand+1)^0,c
  4889   000AE6  0E11               	movlw	17
  4890   000AE8  6E34               	movwf	___wmul@multiplicand^0,c
  4891   000AEA  EC91  F013         	call	___wmul	;wreg free
  4892   000AEE  0E02               	movlw	2
  4893   000AF0  2632               	addwf	?___wmul^0,f,c
  4894   000AF2  0E00               	movlw	0
  4895   000AF4  2233               	addwfc	(?___wmul+1)^0,f,c
  4896   000AF6  0E00               	movlw	low downlode_log@downlode_events
  4897   000AF8  2432               	addwf	?___wmul^0,w,c
  4898   000AFA  6ED9               	movwf	fsr2l,c
  4899   000AFC  0E01               	movlw	high downlode_log@downlode_events
  4900   000AFE  2033               	addwfc	(?___wmul+1)^0,w,c
  4901   000B00  6EDA               	movwf	fsr2h,c
  4902   000B02  C1AE  FFDF         	movff	_data,indf2
  4903                           
  4904                           ;black_box.c: 660:         downlode_events[i][3] = data[1];
  4905   000B06  C1AC  F032         	movff	downlode_log@i,___wmul@multiplier
  4906   000B0A  C1AD  F033         	movff	downlode_log@i+1,___wmul@multiplier+1
  4907   000B0E  0E00               	movlw	0
  4908   000B10  6E35               	movwf	(___wmul@multiplicand+1)^0,c
  4909   000B12  0E11               	movlw	17
  4910   000B14  6E34               	movwf	___wmul@multiplicand^0,c
  4911   000B16  EC91  F013         	call	___wmul	;wreg free
  4912   000B1A  0E03               	movlw	3
  4913   000B1C  2632               	addwf	?___wmul^0,f,c
  4914   000B1E  0E00               	movlw	0
  4915   000B20  2233               	addwfc	(?___wmul+1)^0,f,c
  4916   000B22  0E00               	movlw	low downlode_log@downlode_events
  4917   000B24  2432               	addwf	?___wmul^0,w,c
  4918   000B26  6ED9               	movwf	fsr2l,c
  4919   000B28  0E01               	movlw	high downlode_log@downlode_events
  4920   000B2A  2033               	addwfc	(?___wmul+1)^0,w,c
  4921   000B2C  6EDA               	movwf	fsr2h,c
  4922   000B2E  C1AF  FFDF         	movff	_data+1,indf2
  4923                           
  4924                           ;black_box.c: 661:         downlode_events[i][4] = ':';
  4925   000B32  C1AC  F032         	movff	downlode_log@i,___wmul@multiplier
  4926   000B36  C1AD  F033         	movff	downlode_log@i+1,___wmul@multiplier+1
  4927   000B3A  0E00               	movlw	0
  4928   000B3C  6E35               	movwf	(___wmul@multiplicand+1)^0,c
  4929   000B3E  0E11               	movlw	17
  4930   000B40  6E34               	movwf	___wmul@multiplicand^0,c
  4931   000B42  EC91  F013         	call	___wmul	;wreg free
  4932   000B46  0E04               	movlw	4
  4933   000B48  2632               	addwf	?___wmul^0,f,c
  4934   000B4A  0E00               	movlw	0
  4935   000B4C  2233               	addwfc	(?___wmul+1)^0,f,c
  4936   000B4E  0E00               	movlw	low downlode_log@downlode_events
  4937   000B50  2432               	addwf	?___wmul^0,w,c
  4938   000B52  6ED9               	movwf	fsr2l,c
  4939   000B54  0E01               	movlw	high downlode_log@downlode_events
  4940   000B56  2033               	addwfc	(?___wmul+1)^0,w,c
  4941   000B58  6EDA               	movwf	fsr2h,c
  4942   000B5A  0E3A               	movlw	58
  4943   000B5C  6EDF               	movwf	indf2,c
  4944                           
  4945                           ;black_box.c: 662:         downlode_events[i][5] = data[2];
  4946   000B5E  C1AC  F032         	movff	downlode_log@i,___wmul@multiplier
  4947   000B62  C1AD  F033         	movff	downlode_log@i+1,___wmul@multiplier+1
  4948   000B66  0E00               	movlw	0
  4949   000B68  6E35               	movwf	(___wmul@multiplicand+1)^0,c
  4950   000B6A  0E11               	movlw	17
  4951   000B6C  6E34               	movwf	___wmul@multiplicand^0,c
  4952   000B6E  EC91  F013         	call	___wmul	;wreg free
  4953   000B72  0E05               	movlw	5
  4954   000B74  2632               	addwf	?___wmul^0,f,c
  4955   000B76  0E00               	movlw	0
  4956   000B78  2233               	addwfc	(?___wmul+1)^0,f,c
  4957   000B7A  0E00               	movlw	low downlode_log@downlode_events
  4958   000B7C  2432               	addwf	?___wmul^0,w,c
  4959   000B7E  6ED9               	movwf	fsr2l,c
  4960   000B80  0E01               	movlw	high downlode_log@downlode_events
  4961   000B82  2033               	addwfc	(?___wmul+1)^0,w,c
  4962   000B84  6EDA               	movwf	fsr2h,c
  4963   000B86  C1B0  FFDF         	movff	_data+2,indf2
  4964                           
  4965                           ;black_box.c: 663:         downlode_events[i][6] = data[3];
  4966   000B8A  C1AC  F032         	movff	downlode_log@i,___wmul@multiplier
  4967   000B8E  C1AD  F033         	movff	downlode_log@i+1,___wmul@multiplier+1
  4968   000B92  0E00               	movlw	0
  4969   000B94  6E35               	movwf	(___wmul@multiplicand+1)^0,c
  4970   000B96  0E11               	movlw	17
  4971   000B98  6E34               	movwf	___wmul@multiplicand^0,c
  4972   000B9A  EC91  F013         	call	___wmul	;wreg free
  4973   000B9E  0E06               	movlw	6
  4974   000BA0  2632               	addwf	?___wmul^0,f,c
  4975   000BA2  0E00               	movlw	0
  4976   000BA4  2233               	addwfc	(?___wmul+1)^0,f,c
  4977   000BA6  0E00               	movlw	low downlode_log@downlode_events
  4978   000BA8  2432               	addwf	?___wmul^0,w,c
  4979   000BAA  6ED9               	movwf	fsr2l,c
  4980   000BAC  0E01               	movlw	high downlode_log@downlode_events
  4981   000BAE  2033               	addwfc	(?___wmul+1)^0,w,c
  4982   000BB0  6EDA               	movwf	fsr2h,c
  4983   000BB2  C1B1  FFDF         	movff	_data+3,indf2
  4984                           
  4985                           ;black_box.c: 664:         downlode_events[i][7] = ':';
  4986   000BB6  C1AC  F032         	movff	downlode_log@i,___wmul@multiplier
  4987   000BBA  C1AD  F033         	movff	downlode_log@i+1,___wmul@multiplier+1
  4988   000BBE  0E00               	movlw	0
  4989   000BC0  6E35               	movwf	(___wmul@multiplicand+1)^0,c
  4990   000BC2  0E11               	movlw	17
  4991   000BC4  6E34               	movwf	___wmul@multiplicand^0,c
  4992   000BC6  EC91  F013         	call	___wmul	;wreg free
  4993   000BCA  0E07               	movlw	7
  4994   000BCC  2632               	addwf	?___wmul^0,f,c
  4995   000BCE  0E00               	movlw	0
  4996   000BD0  2233               	addwfc	(?___wmul+1)^0,f,c
  4997   000BD2  0E00               	movlw	low downlode_log@downlode_events
  4998   000BD4  2432               	addwf	?___wmul^0,w,c
  4999   000BD6  6ED9               	movwf	fsr2l,c
  5000   000BD8  0E01               	movlw	high downlode_log@downlode_events
  5001   000BDA  2033               	addwfc	(?___wmul+1)^0,w,c
  5002   000BDC  6EDA               	movwf	fsr2h,c
  5003   000BDE  0E3A               	movlw	58
  5004   000BE0  6EDF               	movwf	indf2,c
  5005                           
  5006                           ;black_box.c: 665:         downlode_events[i][8] = data[4];
  5007   000BE2  C1AC  F032         	movff	downlode_log@i,___wmul@multiplier
  5008   000BE6  C1AD  F033         	movff	downlode_log@i+1,___wmul@multiplier+1
  5009   000BEA  0E00               	movlw	0
  5010   000BEC  6E35               	movwf	(___wmul@multiplicand+1)^0,c
  5011   000BEE  0E11               	movlw	17
  5012   000BF0  6E34               	movwf	___wmul@multiplicand^0,c
  5013   000BF2  EC91  F013         	call	___wmul	;wreg free
  5014   000BF6  0E08               	movlw	8
  5015   000BF8  2632               	addwf	?___wmul^0,f,c
  5016   000BFA  0E00               	movlw	0
  5017   000BFC  2233               	addwfc	(?___wmul+1)^0,f,c
  5018   000BFE  0E00               	movlw	low downlode_log@downlode_events
  5019   000C00  2432               	addwf	?___wmul^0,w,c
  5020   000C02  6ED9               	movwf	fsr2l,c
  5021   000C04  0E01               	movlw	high downlode_log@downlode_events
  5022   000C06  2033               	addwfc	(?___wmul+1)^0,w,c
  5023   000C08  6EDA               	movwf	fsr2h,c
  5024   000C0A  C1B2  FFDF         	movff	_data+4,indf2
  5025                           
  5026                           ;black_box.c: 666:         downlode_events[i][9] = data[5];
  5027   000C0E  C1AC  F032         	movff	downlode_log@i,___wmul@multiplier
  5028   000C12  C1AD  F033         	movff	downlode_log@i+1,___wmul@multiplier+1
  5029   000C16  0E00               	movlw	0
  5030   000C18  6E35               	movwf	(___wmul@multiplicand+1)^0,c
  5031   000C1A  0E11               	movlw	17
  5032   000C1C  6E34               	movwf	___wmul@multiplicand^0,c
  5033   000C1E  EC91  F013         	call	___wmul	;wreg free
  5034   000C22  0E09               	movlw	9
  5035   000C24  2632               	addwf	?___wmul^0,f,c
  5036   000C26  0E00               	movlw	0
  5037   000C28  2233               	addwfc	(?___wmul+1)^0,f,c
  5038   000C2A  0E00               	movlw	low downlode_log@downlode_events
  5039   000C2C  2432               	addwf	?___wmul^0,w,c
  5040   000C2E  6ED9               	movwf	fsr2l,c
  5041   000C30  0E01               	movlw	high downlode_log@downlode_events
  5042   000C32  2033               	addwfc	(?___wmul+1)^0,w,c
  5043   000C34  6EDA               	movwf	fsr2h,c
  5044   000C36  C1B3  FFDF         	movff	_data+5,indf2
  5045                           
  5046                           ;black_box.c: 667:         downlode_events[i][10] = ' ';
  5047   000C3A  C1AC  F032         	movff	downlode_log@i,___wmul@multiplier
  5048   000C3E  C1AD  F033         	movff	downlode_log@i+1,___wmul@multiplier+1
  5049   000C42  0E00               	movlw	0
  5050   000C44  6E35               	movwf	(___wmul@multiplicand+1)^0,c
  5051   000C46  0E11               	movlw	17
  5052   000C48  6E34               	movwf	___wmul@multiplicand^0,c
  5053   000C4A  EC91  F013         	call	___wmul	;wreg free
  5054   000C4E  0E0A               	movlw	10
  5055   000C50  2632               	addwf	?___wmul^0,f,c
  5056   000C52  0E00               	movlw	0
  5057   000C54  2233               	addwfc	(?___wmul+1)^0,f,c
  5058   000C56  0E00               	movlw	low downlode_log@downlode_events
  5059   000C58  2432               	addwf	?___wmul^0,w,c
  5060   000C5A  6ED9               	movwf	fsr2l,c
  5061   000C5C  0E01               	movlw	high downlode_log@downlode_events
  5062   000C5E  2033               	addwfc	(?___wmul+1)^0,w,c
  5063   000C60  6EDA               	movwf	fsr2h,c
  5064   000C62  0E20               	movlw	32
  5065   000C64  6EDF               	movwf	indf2,c
  5066                           
  5067                           ;black_box.c: 668:         downlode_events[i][11] = data[6];
  5068   000C66  C1AC  F032         	movff	downlode_log@i,___wmul@multiplier
  5069   000C6A  C1AD  F033         	movff	downlode_log@i+1,___wmul@multiplier+1
  5070   000C6E  0E00               	movlw	0
  5071   000C70  6E35               	movwf	(___wmul@multiplicand+1)^0,c
  5072   000C72  0E11               	movlw	17
  5073   000C74  6E34               	movwf	___wmul@multiplicand^0,c
  5074   000C76  EC91  F013         	call	___wmul	;wreg free
  5075   000C7A  0E0B               	movlw	11
  5076   000C7C  2632               	addwf	?___wmul^0,f,c
  5077   000C7E  0E00               	movlw	0
  5078   000C80  2233               	addwfc	(?___wmul+1)^0,f,c
  5079   000C82  0E00               	movlw	low downlode_log@downlode_events
  5080   000C84  2432               	addwf	?___wmul^0,w,c
  5081   000C86  6ED9               	movwf	fsr2l,c
  5082   000C88  0E01               	movlw	high downlode_log@downlode_events
  5083   000C8A  2033               	addwfc	(?___wmul+1)^0,w,c
  5084   000C8C  6EDA               	movwf	fsr2h,c
  5085   000C8E  C1B4  FFDF         	movff	_data+6,indf2
  5086                           
  5087                           ;black_box.c: 669:         downlode_events[i][12] = data[7];
  5088   000C92  C1AC  F032         	movff	downlode_log@i,___wmul@multiplier
  5089   000C96  C1AD  F033         	movff	downlode_log@i+1,___wmul@multiplier+1
  5090   000C9A  0E00               	movlw	0
  5091   000C9C  6E35               	movwf	(___wmul@multiplicand+1)^0,c
  5092   000C9E  0E11               	movlw	17
  5093   000CA0  6E34               	movwf	___wmul@multiplicand^0,c
  5094   000CA2  EC91  F013         	call	___wmul	;wreg free
  5095   000CA6  0E0C               	movlw	12
  5096   000CA8  2632               	addwf	?___wmul^0,f,c
  5097   000CAA  0E00               	movlw	0
  5098   000CAC  2233               	addwfc	(?___wmul+1)^0,f,c
  5099   000CAE  0E00               	movlw	low downlode_log@downlode_events
  5100   000CB0  2432               	addwf	?___wmul^0,w,c
  5101   000CB2  6ED9               	movwf	fsr2l,c
  5102   000CB4  0E01               	movlw	high downlode_log@downlode_events
  5103   000CB6  2033               	addwfc	(?___wmul+1)^0,w,c
  5104   000CB8  6EDA               	movwf	fsr2h,c
  5105   000CBA  C1B5  FFDF         	movff	_data+7,indf2
  5106                           
  5107                           ;black_box.c: 670:         downlode_events[i][13] = ' ';
  5108   000CBE  C1AC  F032         	movff	downlode_log@i,___wmul@multiplier
  5109   000CC2  C1AD  F033         	movff	downlode_log@i+1,___wmul@multiplier+1
  5110   000CC6  0E00               	movlw	0
  5111   000CC8  6E35               	movwf	(___wmul@multiplicand+1)^0,c
  5112   000CCA  0E11               	movlw	17
  5113   000CCC  6E34               	movwf	___wmul@multiplicand^0,c
  5114   000CCE  EC91  F013         	call	___wmul	;wreg free
  5115   000CD2  0E0D               	movlw	13
  5116   000CD4  2632               	addwf	?___wmul^0,f,c
  5117   000CD6  0E00               	movlw	0
  5118   000CD8  2233               	addwfc	(?___wmul+1)^0,f,c
  5119   000CDA  0E00               	movlw	low downlode_log@downlode_events
  5120   000CDC  2432               	addwf	?___wmul^0,w,c
  5121   000CDE  6ED9               	movwf	fsr2l,c
  5122   000CE0  0E01               	movlw	high downlode_log@downlode_events
  5123   000CE2  2033               	addwfc	(?___wmul+1)^0,w,c
  5124   000CE4  6EDA               	movwf	fsr2h,c
  5125   000CE6  0E20               	movlw	32
  5126   000CE8  6EDF               	movwf	indf2,c
  5127                           
  5128                           ;black_box.c: 671:         downlode_events[i][14] = data[8];
  5129   000CEA  C1AC  F032         	movff	downlode_log@i,___wmul@multiplier
  5130   000CEE  C1AD  F033         	movff	downlode_log@i+1,___wmul@multiplier+1
  5131   000CF2  0E00               	movlw	0
  5132   000CF4  6E35               	movwf	(___wmul@multiplicand+1)^0,c
  5133   000CF6  0E11               	movlw	17
  5134   000CF8  6E34               	movwf	___wmul@multiplicand^0,c
  5135   000CFA  EC91  F013         	call	___wmul	;wreg free
  5136   000CFE  0E0E               	movlw	14
  5137   000D00  2632               	addwf	?___wmul^0,f,c
  5138   000D02  0E00               	movlw	0
  5139   000D04  2233               	addwfc	(?___wmul+1)^0,f,c
  5140   000D06  0E00               	movlw	low downlode_log@downlode_events
  5141   000D08  2432               	addwf	?___wmul^0,w,c
  5142   000D0A  6ED9               	movwf	fsr2l,c
  5143   000D0C  0E01               	movlw	high downlode_log@downlode_events
  5144   000D0E  2033               	addwfc	(?___wmul+1)^0,w,c
  5145   000D10  6EDA               	movwf	fsr2h,c
  5146   000D12  C1B6  FFDF         	movff	_data+8,indf2
  5147                           
  5148                           ;black_box.c: 672:         downlode_events[i][15] = data[9];
  5149   000D16  C1AC  F032         	movff	downlode_log@i,___wmul@multiplier
  5150   000D1A  C1AD  F033         	movff	downlode_log@i+1,___wmul@multiplier+1
  5151   000D1E  0E00               	movlw	0
  5152   000D20  6E35               	movwf	(___wmul@multiplicand+1)^0,c
  5153   000D22  0E11               	movlw	17
  5154   000D24  6E34               	movwf	___wmul@multiplicand^0,c
  5155   000D26  EC91  F013         	call	___wmul	;wreg free
  5156   000D2A  0E0F               	movlw	15
  5157   000D2C  2632               	addwf	?___wmul^0,f,c
  5158   000D2E  0E00               	movlw	0
  5159   000D30  2233               	addwfc	(?___wmul+1)^0,f,c
  5160   000D32  0E00               	movlw	low downlode_log@downlode_events
  5161   000D34  2432               	addwf	?___wmul^0,w,c
  5162   000D36  6ED9               	movwf	fsr2l,c
  5163   000D38  0E01               	movlw	high downlode_log@downlode_events
  5164   000D3A  2033               	addwfc	(?___wmul+1)^0,w,c
  5165   000D3C  6EDA               	movwf	fsr2h,c
  5166   000D3E  C1B7  FFDF         	movff	_data+9,indf2
  5167                           
  5168                           ;black_box.c: 673:         downlode_events[i][16] = '\0';
  5169   000D42  C1AC  F032         	movff	downlode_log@i,___wmul@multiplier
  5170   000D46  C1AD  F033         	movff	downlode_log@i+1,___wmul@multiplier+1
  5171   000D4A  0E00               	movlw	0
  5172   000D4C  6E35               	movwf	(___wmul@multiplicand+1)^0,c
  5173   000D4E  0E11               	movlw	17
  5174   000D50  6E34               	movwf	___wmul@multiplicand^0,c
  5175   000D52  EC91  F013         	call	___wmul	;wreg free
  5176   000D56  0E10               	movlw	16
  5177   000D58  2632               	addwf	?___wmul^0,f,c
  5178   000D5A  0E00               	movlw	0
  5179   000D5C  2233               	addwfc	(?___wmul+1)^0,f,c
  5180   000D5E  0E00               	movlw	low downlode_log@downlode_events
  5181   000D60  2432               	addwf	?___wmul^0,w,c
  5182   000D62  6ED9               	movwf	fsr2l,c
  5183   000D64  0E01               	movlw	high downlode_log@downlode_events
  5184   000D66  2033               	addwfc	(?___wmul+1)^0,w,c
  5185   000D68  6EDA               	movwf	fsr2h,c
  5186   000D6A  6ADF               	clrf	indf2,c
  5187   000D6C                     
  5188                           ;black_box.c: 674:     }
  5189   000D6C  0101               	movlb	1	; () banked
  5190   000D6E  4BAC               	infsnz	downlode_log@i& (0+255),f,b
  5191   000D70  2BAD               	incf	(downlode_log@i+1)& (0+255),f,b
  5192   000D72                     l4086:
  5193                           
  5194                           ; BSR set to: 1
  5195   000D72  51AC               	movf	downlode_log@i& (0+255),w,b
  5196   000D74  5C5B               	subwf	_event_count^0,w,c
  5197   000D76  51AD               	movf	(downlode_log@i+1)& (0+255),w,b
  5198   000D78  585C               	subwfb	(_event_count+1)^0,w,c
  5199   000D7A  B0D8               	btfsc	status,0,c
  5200   000D7C  EFC2  F006         	goto	u2951
  5201   000D80  EFC4  F006         	goto	u2950
  5202   000D84                     u2951:
  5203   000D84  EF33  F005         	goto	l4082
  5204   000D88                     u2950:
  5205   000D88                     
  5206                           ; BSR set to: 1
  5207                           ;black_box.c: 675:     init_uart();
  5208   000D88  ECF1  F013         	call	_init_uart	;wreg free
  5209   000D8C                     
  5210                           ;black_box.c: 676:     GIE = 1;
  5211   000D8C  8EF2               	bsf	4082,7,c	;volatile
  5212   000D8E                     
  5213                           ;black_box.c: 677:     puts("# TIME     EV SP\n\r");
  5214   000D8E  0EC5               	movlw	low STR_44
  5215   000D90  6E38               	movwf	puts@s^0,c
  5216   000D92  0E2E               	movlw	high STR_44
  5217   000D94  6E39               	movwf	(puts@s+1)^0,c
  5218   000D96  ECBE  F011         	call	_puts	;wreg free
  5219   000D9A                     
  5220                           ;black_box.c: 678:     for(int k=0; k<event_count; k++)
  5221   000D9A  0E00               	movlw	0
  5222   000D9C  0101               	movlb	1	; () banked
  5223   000D9E  6FAB               	movwf	(downlode_log@k+1)& (0+255),b
  5224   000DA0  0E00               	movlw	0
  5225   000DA2  6FAA               	movwf	downlode_log@k& (0+255),b
  5226   000DA4  EFEF  F006         	goto	l4102
  5227   000DA8                     l4096:
  5228                           
  5229                           ; BSR set to: 1
  5230                           ;black_box.c: 679:     {;black_box.c: 680:         puts(downlode_events[k]);
  5231   000DA8  C1AA  F032         	movff	downlode_log@k,___wmul@multiplier
  5232   000DAC  C1AB  F033         	movff	downlode_log@k+1,___wmul@multiplier+1
  5233   000DB0  0E00               	movlw	0
  5234   000DB2  6E35               	movwf	(___wmul@multiplicand+1)^0,c
  5235   000DB4  0E11               	movlw	17
  5236   000DB6  6E34               	movwf	___wmul@multiplicand^0,c
  5237   000DB8  EC91  F013         	call	___wmul	;wreg free
  5238   000DBC  0E00               	movlw	low downlode_log@downlode_events
  5239   000DBE  2432               	addwf	?___wmul^0,w,c
  5240   000DC0  6E38               	movwf	puts@s^0,c
  5241   000DC2  0E01               	movlw	high downlode_log@downlode_events
  5242   000DC4  2033               	addwfc	(?___wmul+1)^0,w,c
  5243   000DC6  6E39               	movwf	(puts@s+1)^0,c
  5244   000DC8  ECBE  F011         	call	_puts	;wreg free
  5245   000DCC                     
  5246                           ;black_box.c: 681:         puts("\n\r");
  5247   000DCC  0ED5               	movlw	low (STR_44+16)
  5248   000DCE  6E38               	movwf	puts@s^0,c
  5249   000DD0  0E2E               	movlw	high (STR_44+16)
  5250   000DD2  6E39               	movwf	(puts@s+1)^0,c
  5251   000DD4  ECBE  F011         	call	_puts	;wreg free
  5252   000DD8                     
  5253                           ;black_box.c: 682:     }
  5254   000DD8  0101               	movlb	1	; () banked
  5255   000DDA  4BAA               	infsnz	downlode_log@k& (0+255),f,b
  5256   000DDC  2BAB               	incf	(downlode_log@k+1)& (0+255),f,b
  5257   000DDE                     l4102:
  5258                           
  5259                           ; BSR set to: 1
  5260   000DDE  505B               	movf	_event_count^0,w,c
  5261   000DE0  5DAA               	subwf	downlode_log@k& (0+255),w,b
  5262   000DE2  505C               	movf	(_event_count+1)^0,w,c
  5263   000DE4  59AB               	subwfb	(downlode_log@k+1)& (0+255),w,b
  5264   000DE6  A0D8               	btfss	status,0,c
  5265   000DE8  EFF8  F006         	goto	u2961
  5266   000DEC  EFFA  F006         	goto	u2960
  5267   000DF0                     u2961:
  5268   000DF0  EFD4  F006         	goto	l4096
  5269   000DF4                     u2960:
  5270   000DF4                     
  5271                           ; BSR set to: 1
  5272                           ;black_box.c: 683:     _delay((unsigned long)((1500)*(20000000/4000.0)));
  5273   000DF4  0E27               	movlw	39
  5274   000DF6  6E3D               	movwf	(??_downlode_log+1)^0,c
  5275   000DF8  0E0D               	movlw	13
  5276   000DFA  6E3C               	movwf	??_downlode_log^0,c
  5277   000DFC  0E26               	movlw	38
  5278   000DFE                     u3457:
  5279   000DFE  2EE8               	decfsz	wreg,f,c
  5280   000E00  D7FE               	bra	u3457
  5281   000E02  2E3C               	decfsz	??_downlode_log^0,f,c
  5282   000E04  D7FC               	bra	u3457
  5283   000E06  2E3D               	decfsz	(??_downlode_log+1)^0,f,c
  5284   000E08  D7FA               	bra	u3457
  5285   000E0A  D000               	nop2	
  5286   000E0C                     
  5287                           ;black_box.c: 684:     clcd_write(0x01, 0);
  5288   000E0C  0E00               	movlw	0
  5289   000E0E  6E32               	movwf	clcd_write@control_bit^0,c
  5290   000E10  0E01               	movlw	1
  5291   000E12  EC35  F013         	call	_clcd_write
  5292   000E16                     
  5293                           ;black_box.c: 685:      PEIE = 0;
  5294   000E16  9CF2               	bcf	4082,6,c	;volatile
  5295   000E18                     
  5296                           ;black_box.c: 686:     GIE = 0;
  5297   000E18  9EF2               	bcf	4082,7,c	;volatile
  5298   000E1A                     l4112:
  5299                           
  5300                           ;black_box.c: 687:     main_flag=2;
  5301   000E1A  0E00               	movlw	0
  5302   000E1C  6E27               	movwf	(_main_flag+1)^0,c
  5303   000E1E  0E02               	movlw	2
  5304   000E20  6E26               	movwf	_main_flag^0,c
  5305   000E22  EF2E  F007         	goto	l384
  5306   000E26                     l4118:
  5307                           
  5308                           ;black_box.c: 691:     {;black_box.c: 692:         clcd_print("Empty Log",(0x80 + (0)));
  5309   000E26  0EA3               	movlw	low STR_42
  5310   000E28  6E34               	movwf	clcd_print@data^0,c
  5311   000E2A  0E2F               	movlw	high STR_42
  5312   000E2C  6E35               	movwf	(clcd_print@data+1)^0,c
  5313   000E2E  0E80               	movlw	128
  5314   000E30  6E36               	movwf	clcd_print@addr^0,c
  5315   000E32  EC56  F011         	call	_clcd_print	;wreg free
  5316   000E36                     
  5317                           ;black_box.c: 693:         _delay((unsigned long)((1500)*(20000000/4000.0)));
  5318   000E36  0E27               	movlw	39
  5319   000E38  6E3D               	movwf	(??_downlode_log+1)^0,c
  5320   000E3A  0E0D               	movlw	13
  5321   000E3C  6E3C               	movwf	??_downlode_log^0,c
  5322   000E3E  0E26               	movlw	38
  5323   000E40                     u3467:
  5324   000E40  2EE8               	decfsz	wreg,f,c
  5325   000E42  D7FE               	bra	u3467
  5326   000E44  2E3C               	decfsz	??_downlode_log^0,f,c
  5327   000E46  D7FC               	bra	u3467
  5328   000E48  2E3D               	decfsz	(??_downlode_log+1)^0,f,c
  5329   000E4A  D7FA               	bra	u3467
  5330   000E4C  D000               	nop2	
  5331   000E4E                     
  5332                           ;black_box.c: 694:         clcd_write(0x01, 0);
  5333   000E4E  0E00               	movlw	0
  5334   000E50  6E32               	movwf	clcd_write@control_bit^0,c
  5335   000E52  0E01               	movlw	1
  5336   000E54  EC35  F013         	call	_clcd_write
  5337   000E58  EF0D  F007         	goto	l4112
  5338   000E5C                     l384:
  5339   000E5C  0012               	return		;funcret
  5340   000E5E                     __end_of_downlode_log:
  5341                           	callstack 0
  5342                           
  5343 ;; *************** function _read_from_EEPROM *****************
  5344 ;; Defined at:
  5345 ;;		line 638 in file "black_box.c"
  5346 ;; Parameters:    Size  Location     Type
  5347 ;;  j               2    6[COMRAM] PTR unsigned char 
  5348 ;;		 -> RAM(1535), 
  5349 ;; Auto vars:     Size  Location     Type
  5350 ;;  i               2    8[COMRAM] int 
  5351 ;; Return value:  Size  Location     Type
  5352 ;;                  1    wreg      void 
  5353 ;; Registers used:
  5354 ;;		wreg, fsr2l, fsr2h, status,2, status,0, cstack
  5355 ;; Tracked objects:
  5356 ;;		On entry : 0/0
  5357 ;;		On exit  : 0/0
  5358 ;;		Unchanged: 0/0
  5359 ;; Data sizes:     COMRAM   BANK0   BANK1   BANK2   BANK3   BANK4   BANK5
  5360 ;;      Params:         2       0       0       0       0       0       0
  5361 ;;      Locals:         2       0       0       0       0       0       0
  5362 ;;      Temps:          0       0       0       0       0       0       0
  5363 ;;      Totals:         4       0       0       0       0       0       0
  5364 ;;Total ram usage:        4 bytes
  5365 ;; Hardware stack levels used: 1
  5366 ;; Hardware stack levels required when called: 5
  5367 ;; This function calls:
  5368 ;;		_read_external_eeprom
  5369 ;; This function is called by:
  5370 ;;		_view_log
  5371 ;;		_downlode_log
  5372 ;; This function uses a non-reentrant model
  5373 ;;
  5374                           
  5375                           	psect	text17
  5376   0025AA                     __ptext17:
  5377                           	callstack 0
  5378   0025AA                     _read_from_EEPROM:
  5379                           	callstack 24
  5380   0025AA                     
  5381                           ;black_box.c: 638: void read_from_EEPROM(char *j);black_box.c: 639: {;black_box.c: 641: 
      +                              for( int i=0; i<10; i++)
  5382   0025AA  0E00               	movlw	0
  5383   0025AC  6E3B               	movwf	(read_from_EEPROM@i+1)^0,c
  5384   0025AE  0E00               	movlw	0
  5385   0025B0  6E3A               	movwf	read_from_EEPROM@i^0,c
  5386   0025B2                     l3416:
  5387                           
  5388                           ;black_box.c: 642:     {;black_box.c: 643:         data[i] = read_external_eeprom(j+i);
  5389   0025B2  0EAE               	movlw	low _data
  5390   0025B4  243A               	addwf	read_from_EEPROM@i^0,w,c
  5391   0025B6  6ED9               	movwf	fsr2l,c
  5392   0025B8  0E01               	movlw	high _data
  5393   0025BA  203B               	addwfc	(read_from_EEPROM@i+1)^0,w,c
  5394   0025BC  6EDA               	movwf	fsr2h,c
  5395   0025BE  5038               	movf	read_from_EEPROM@j^0,w,c
  5396   0025C0  243A               	addwf	read_from_EEPROM@i^0,w,c
  5397   0025C2  EC46  F012         	call	_read_external_eeprom
  5398   0025C6  6EDF               	movwf	indf2,c
  5399   0025C8                     
  5400                           ;black_box.c: 644:     }
  5401   0025C8  4A3A               	infsnz	read_from_EEPROM@i^0,f,c
  5402   0025CA  2A3B               	incf	(read_from_EEPROM@i+1)^0,f,c
  5403   0025CC  BE3B               	btfsc	(read_from_EEPROM@i+1)^0,7,c
  5404   0025CE  EFF2  F012         	goto	u2061
  5405   0025D2  503B               	movf	(read_from_EEPROM@i+1)^0,w,c
  5406   0025D4  E109               	bnz	u2060
  5407   0025D6  0E0A               	movlw	10
  5408   0025D8  5C3A               	subwf	read_from_EEPROM@i^0,w,c
  5409   0025DA  A0D8               	btfss	status,0,c
  5410   0025DC  EFF2  F012         	goto	u2061
  5411   0025E0  EFF4  F012         	goto	u2060
  5412   0025E4                     u2061:
  5413   0025E4  EFD9  F012         	goto	l3416
  5414   0025E8                     u2060:
  5415   0025E8  0012               	return		;funcret
  5416   0025EA                     __end_of_read_from_EEPROM:
  5417                           	callstack 0
  5418                           
  5419 ;; *************** function _read_external_eeprom *****************
  5420 ;; Defined at:
  5421 ;;		line 22 in file "external_EEPROM_P.c"
  5422 ;; Parameters:    Size  Location     Type
  5423 ;;  address         1    wreg     unsigned char 
  5424 ;; Auto vars:     Size  Location     Type
  5425 ;;  address         1    3[COMRAM] unsigned char 
  5426 ;;  i               2    1[COMRAM] int 
  5427 ;;  data            1    4[COMRAM] unsigned char 
  5428 ;; Return value:  Size  Location     Type
  5429 ;;                  1    wreg      unsigned char 
  5430 ;; Registers used:
  5431 ;;		wreg, status,2, status,0, cstack
  5432 ;; Tracked objects:
  5433 ;;		On entry : 0/0
  5434 ;;		On exit  : 0/0
  5435 ;;		Unchanged: 0/0
  5436 ;; Data sizes:     COMRAM   BANK0   BANK1   BANK2   BANK3   BANK4   BANK5
  5437 ;;      Params:         0       0       0       0       0       0       0
  5438 ;;      Locals:         4       0       0       0       0       0       0
  5439 ;;      Temps:          0       0       0       0       0       0       0
  5440 ;;      Totals:         4       0       0       0       0       0       0
  5441 ;;Total ram usage:        4 bytes
  5442 ;; Hardware stack levels used: 1
  5443 ;; Hardware stack levels required when called: 4
  5444 ;; This function calls:
  5445 ;;		_i2c_read
  5446 ;;		_i2c_rep_start
  5447 ;;		_i2c_start
  5448 ;;		_i2c_stop
  5449 ;;		_i2c_write
  5450 ;; This function is called by:
  5451 ;;		_fetch_password
  5452 ;;		_read_from_EEPROM
  5453 ;; This function uses a non-reentrant model
  5454 ;;
  5455                           
  5456                           	psect	text18
  5457   00248C                     __ptext18:
  5458                           	callstack 0
  5459   00248C                     _read_external_eeprom:
  5460                           	callstack 24
  5461                           
  5462                           ;incstack = 0
  5463                           ;read_external_eeprom@address stored from wreg
  5464   00248C  6E35               	movwf	read_external_eeprom@address^0,c
  5465   00248E                     
  5466                           ;external_EEPROM_P.c: 22: unsigned char read_external_eeprom(unsigned char address);exte
      +                          rnal_EEPROM_P.c: 23: {;external_EEPROM_P.c: 24:  unsigned char data;;external_EEPROM_P.c
      +                          : 26:  i2c_start();
  5467   00248E  EC1F  F014         	call	_i2c_start	;wreg free
  5468   002492                     
  5469                           ;external_EEPROM_P.c: 27:  i2c_write(0xA0);
  5470   002492  0EA0               	movlw	160
  5471   002494  EC09  F014         	call	_i2c_write
  5472   002498                     
  5473                           ;external_EEPROM_P.c: 28:  i2c_write(address);
  5474   002498  5035               	movf	read_external_eeprom@address^0,w,c
  5475   00249A  EC09  F014         	call	_i2c_write
  5476   00249E                     
  5477                           ;external_EEPROM_P.c: 29:  i2c_rep_start();
  5478   00249E  EC13  F014         	call	_i2c_rep_start	;wreg free
  5479   0024A2                     
  5480                           ;external_EEPROM_P.c: 30:  i2c_write(0xA1);
  5481   0024A2  0EA1               	movlw	161
  5482   0024A4  EC09  F014         	call	_i2c_write
  5483                           
  5484                           ;external_EEPROM_P.c: 31:  data = i2c_read();
  5485   0024A8  EC03  F014         	call	_i2c_read	;wreg free
  5486   0024AC  6E36               	movwf	read_external_eeprom@data^0,c
  5487   0024AE                     
  5488                           ;external_EEPROM_P.c: 32:  i2c_stop();
  5489   0024AE  EC1B  F014         	call	_i2c_stop	;wreg free
  5490                           
  5491                           ;external_EEPROM_P.c: 33:     for(int i = 3000;i--;);
  5492   0024B2  0E0B               	movlw	11
  5493   0024B4  6E34               	movwf	(read_external_eeprom@i+1)^0,c
  5494   0024B6  0EB8               	movlw	184
  5495   0024B8  6E33               	movwf	read_external_eeprom@i^0,c
  5496   0024BA                     l3166:
  5497   0024BA  0633               	decf	read_external_eeprom@i^0,f,c
  5498   0024BC  A0D8               	btfss	status,0,c
  5499   0024BE  0634               	decf	(read_external_eeprom@i+1)^0,f,c
  5500   0024C0  2833               	incf	read_external_eeprom@i^0,w,c
  5501   0024C2  E106               	bnz	u1811
  5502   0024C4  2834               	incf	(read_external_eeprom@i+1)^0,w,c
  5503   0024C6  A4D8               	btfss	status,2,c
  5504   0024C8  EF68  F012         	goto	u1811
  5505   0024CC  EF6A  F012         	goto	u1810
  5506   0024D0                     u1811:
  5507   0024D0  EF5D  F012         	goto	l3166
  5508   0024D4                     u1810:
  5509   0024D4                     
  5510                           ;external_EEPROM_P.c: 35:  return data;
  5511   0024D4  5036               	movf	read_external_eeprom@data^0,w,c
  5512   0024D6  0012               	return		;funcret
  5513   0024D8                     __end_of_read_external_eeprom:
  5514                           	callstack 0
  5515                           
  5516 ;; *************** function _puts *****************
  5517 ;; Defined at:
  5518 ;;		line 47 in file "UART_P.c"
  5519 ;; Parameters:    Size  Location     Type
  5520 ;;  s               2    6[COMRAM] PTR const unsigned char 
  5521 ;;		 -> STR_45(3), STR_44(19), downlode_log@downlode_events(170), 
  5522 ;; Auto vars:     Size  Location     Type
  5523 ;;		None
  5524 ;; Return value:  Size  Location     Type
  5525 ;;                  2    6[COMRAM] int 
  5526 ;; Registers used:
  5527 ;;		wreg, fsr0l, fsr0h, status,2, status,0, tblptrl, tblptrh, tblptru, cstack
  5528 ;; Tracked objects:
  5529 ;;		On entry : 0/0
  5530 ;;		On exit  : 0/0
  5531 ;;		Unchanged: 0/0
  5532 ;; Data sizes:     COMRAM   BANK0   BANK1   BANK2   BANK3   BANK4   BANK5
  5533 ;;      Params:         2       0       0       0       0       0       0
  5534 ;;      Locals:         0       0       0       0       0       0       0
  5535 ;;      Temps:          0       0       0       0       0       0       0
  5536 ;;      Totals:         2       0       0       0       0       0       0
  5537 ;;Total ram usage:        2 bytes
  5538 ;; Hardware stack levels used: 1
  5539 ;; Hardware stack levels required when called: 2
  5540 ;; This function calls:
  5541 ;;		_putch
  5542 ;; This function is called by:
  5543 ;;		_downlode_log
  5544 ;; This function uses a non-reentrant model
  5545 ;;
  5546                           
  5547                           	psect	text19
  5548   00237C                     __ptext19:
  5549                           	callstack 0
  5550   00237C                     _puts:
  5551                           	callstack 27
  5552   00237C                     
  5553                           ;UART_P.c: 47: int puts(const char *s);UART_P.c: 48: {;UART_P.c: 49:  while(*s)
  5554   00237C  EFD4  F011         	goto	l3434
  5555   002380                     l3430:
  5556                           
  5557                           ;UART_P.c: 50:  {;UART_P.c: 51:   putch(*s++);
  5558   002380  C038  FFF6         	movff	puts@s,tblptrl
  5559   002384  C039  FFF7         	movff	puts@s+1,tblptrh
  5560   002388  6AF8               	clrf	tblptru,c
  5561   00238A  0E05               	movlw	(high __ramtop+-1)
  5562   00238C  64F7               	cpfsgt	tblptrh,c
  5563   00238E  D003               	bra	u2077
  5564   002390  0008               	tblrd		*
  5565   002392  50F5               	movf	tablat,w,c
  5566   002394  D005               	bra	u2070
  5567   002396                     u2077:
  5568   002396  CFF6 FFE9          	movff	tblptrl,fsr0l
  5569   00239A  CFF7 FFEA          	movff	tblptrh,fsr0h
  5570   00239E  50EF               	movf	indf0,w,c
  5571   0023A0                     u2070:
  5572   0023A0  ECE6  F013         	call	_putch
  5573   0023A4  4A38               	infsnz	puts@s^0,f,c
  5574   0023A6  2A39               	incf	(puts@s+1)^0,f,c
  5575   0023A8                     l3434:
  5576                           
  5577                           ;UART_P.c: 49:  while(*s)
  5578   0023A8  C038  FFF6         	movff	puts@s,tblptrl
  5579   0023AC  C039  FFF7         	movff	puts@s+1,tblptrh
  5580   0023B0  6AF8               	clrf	tblptru,c
  5581   0023B2  0E05               	movlw	(high __ramtop+-1)
  5582   0023B4  64F7               	cpfsgt	tblptrh,c
  5583   0023B6  D003               	bra	u2087
  5584   0023B8  0008               	tblrd		*
  5585   0023BA  50F5               	movf	tablat,w,c
  5586   0023BC  D005               	bra	u2080
  5587   0023BE                     u2087:
  5588   0023BE  CFF6 FFE9          	movff	tblptrl,fsr0l
  5589   0023C2  CFF7 FFEA          	movff	tblptrh,fsr0h
  5590   0023C6  50EF               	movf	indf0,w,c
  5591   0023C8                     u2080:
  5592   0023C8  0900               	iorlw	0
  5593   0023CA  A4D8               	btfss	status,2,c
  5594   0023CC  EFEA  F011         	goto	u2091
  5595   0023D0  EFEC  F011         	goto	u2090
  5596   0023D4                     u2091:
  5597   0023D4  EFC0  F011         	goto	l3430
  5598   0023D8                     u2090:
  5599   0023D8  0012               	return		;funcret
  5600   0023DA                     __end_of_puts:
  5601                           	callstack 0
  5602                           
  5603 ;; *************** function _putch *****************
  5604 ;; Defined at:
  5605 ;;		line 36 in file "UART_P.c"
  5606 ;; Parameters:    Size  Location     Type
  5607 ;;  byte            1    wreg     unsigned char 
  5608 ;; Auto vars:     Size  Location     Type
  5609 ;;  byte            1    0[COMRAM] unsigned char 
  5610 ;; Return value:  Size  Location     Type
  5611 ;;                  1    wreg      void 
  5612 ;; Registers used:
  5613 ;;		wreg
  5614 ;; Tracked objects:
  5615 ;;		On entry : 0/0
  5616 ;;		On exit  : 0/0
  5617 ;;		Unchanged: 0/0
  5618 ;; Data sizes:     COMRAM   BANK0   BANK1   BANK2   BANK3   BANK4   BANK5
  5619 ;;      Params:         0       0       0       0       0       0       0
  5620 ;;      Locals:         1       0       0       0       0       0       0
  5621 ;;      Temps:          0       0       0       0       0       0       0
  5622 ;;      Totals:         1       0       0       0       0       0       0
  5623 ;;Total ram usage:        1 bytes
  5624 ;; Hardware stack levels used: 1
  5625 ;; Hardware stack levels required when called: 1
  5626 ;; This function calls:
  5627 ;;		Nothing
  5628 ;; This function is called by:
  5629 ;;		_puts
  5630 ;; This function uses a non-reentrant model
  5631 ;;
  5632                           
  5633                           	psect	text20
  5634   0027CC                     __ptext20:
  5635                           	callstack 0
  5636   0027CC                     _putch:
  5637                           	callstack 27
  5638                           
  5639                           ;incstack = 0
  5640                           ;putch@byte stored from wreg
  5641   0027CC  6E32               	movwf	putch@byte^0,c
  5642   0027CE                     l957:
  5643                           
  5644                           ;UART_P.c: 40:  while(!TXIF)
  5645   0027CE  A89E               	btfss	3998,4,c	;volatile
  5646   0027D0  EFEC  F013         	goto	u1821
  5647   0027D4  EFEE  F013         	goto	u1820
  5648   0027D8                     u1821:
  5649   0027D8  EFE7  F013         	goto	l957
  5650   0027DC                     u1820:
  5651   0027DC                     
  5652                           ;UART_P.c: 44:  TXREG = byte;
  5653   0027DC  C032  FFAD         	movff	putch@byte,4013	;volatile
  5654   0027E0  0012               	return		;funcret
  5655   0027E2                     __end_of_putch:
  5656                           	callstack 0
  5657                           
  5658 ;; *************** function _init_uart *****************
  5659 ;; Defined at:
  5660 ;;		line 11 in file "UART_P.c"
  5661 ;; Parameters:    Size  Location     Type
  5662 ;;		None
  5663 ;; Auto vars:     Size  Location     Type
  5664 ;;		None
  5665 ;; Return value:  Size  Location     Type
  5666 ;;                  1    wreg      void 
  5667 ;; Registers used:
  5668 ;;		wreg, status,2
  5669 ;; Tracked objects:
  5670 ;;		On entry : 0/0
  5671 ;;		On exit  : 0/0
  5672 ;;		Unchanged: 0/0
  5673 ;; Data sizes:     COMRAM   BANK0   BANK1   BANK2   BANK3   BANK4   BANK5
  5674 ;;      Params:         0       0       0       0       0       0       0
  5675 ;;      Locals:         0       0       0       0       0       0       0
  5676 ;;      Temps:          0       0       0       0       0       0       0
  5677 ;;      Totals:         0       0       0       0       0       0       0
  5678 ;;Total ram usage:        0 bytes
  5679 ;; Hardware stack levels used: 1
  5680 ;; Hardware stack levels required when called: 1
  5681 ;; This function calls:
  5682 ;;		Nothing
  5683 ;; This function is called by:
  5684 ;;		_downlode_log
  5685 ;; This function uses a non-reentrant model
  5686 ;;
  5687                           
  5688                           	psect	text21
  5689   0027E2                     __ptext21:
  5690                           	callstack 0
  5691   0027E2                     _init_uart:
  5692                           	callstack 28
  5693   0027E2                     
  5694                           ;UART_P.c: 14:  TRISC7 = 1;
  5695   0027E2  8E94               	bsf	3988,7,c	;volatile
  5696                           
  5697                           ;UART_P.c: 15:  TRISC6 = 0;
  5698   0027E4  9C94               	bcf	3988,6,c	;volatile
  5699                           
  5700                           ;UART_P.c: 18:  BRGH = 1;
  5701   0027E6  84AC               	bsf	4012,2,c	;volatile
  5702                           
  5703                           ;UART_P.c: 19:  SPEN = 1;
  5704   0027E8  8EAB               	bsf	4011,7,c	;volatile
  5705                           
  5706                           ;UART_P.c: 23:  CREN = 1;
  5707   0027EA  88AB               	bsf	4011,4,c	;volatile
  5708   0027EC                     
  5709                           ;UART_P.c: 29:  SPBRG = 129;
  5710   0027EC  0E81               	movlw	129
  5711   0027EE  6EAF               	movwf	175,c	;volatile
  5712   0027F0                     
  5713                           ;UART_P.c: 31:     RCIE = 1;
  5714   0027F0  8A9D               	bsf	3997,5,c	;volatile
  5715   0027F2  0012               	return		;funcret
  5716   0027F4                     __end_of_init_uart:
  5717                           	callstack 0
  5718                           
  5719 ;; *************** function ___wmul *****************
  5720 ;; Defined at:
  5721 ;;		line 15 in file "C:\Program Files\Microchip\xc8\v2.46\pic\sources\c99\common\Umul16.c"
  5722 ;; Parameters:    Size  Location     Type
  5723 ;;  multiplier      2    0[COMRAM] unsigned int 
  5724 ;;  multiplicand    2    2[COMRAM] unsigned int 
  5725 ;; Auto vars:     Size  Location     Type
  5726 ;;  product         2    4[COMRAM] unsigned int 
  5727 ;; Return value:  Size  Location     Type
  5728 ;;                  2    0[COMRAM] unsigned int 
  5729 ;; Registers used:
  5730 ;;		wreg, status,2, status,0, prodl, prodh
  5731 ;; Tracked objects:
  5732 ;;		On entry : 0/0
  5733 ;;		On exit  : 0/0
  5734 ;;		Unchanged: 0/0
  5735 ;; Data sizes:     COMRAM   BANK0   BANK1   BANK2   BANK3   BANK4   BANK5
  5736 ;;      Params:         4       0       0       0       0       0       0
  5737 ;;      Locals:         2       0       0       0       0       0       0
  5738 ;;      Temps:          0       0       0       0       0       0       0
  5739 ;;      Totals:         6       0       0       0       0       0       0
  5740 ;;Total ram usage:        6 bytes
  5741 ;; Hardware stack levels used: 1
  5742 ;; Hardware stack levels required when called: 1
  5743 ;; This function calls:
  5744 ;;		Nothing
  5745 ;; This function is called by:
  5746 ;;		_view_log
  5747 ;;		_downlode_log
  5748 ;; This function uses a non-reentrant model
  5749 ;;
  5750                           
  5751                           	psect	text22
  5752   002722                     __ptext22:
  5753                           	callstack 0
  5754   002722                     ___wmul:
  5755                           	callstack 28
  5756   002722  5032               	movf	___wmul@multiplier^0,w,c
  5757   002724  0234               	mulwf	___wmul@multiplicand^0,c
  5758   002726  CFF3 F036          	movff	prodl,___wmul@product
  5759   00272A  CFF4 F037          	movff	prodh,___wmul@product+1
  5760   00272E  5032               	movf	___wmul@multiplier^0,w,c
  5761   002730  0235               	mulwf	(___wmul@multiplicand+1)^0,c
  5762   002732  50F3               	movf	243,w,c
  5763   002734  2637               	addwf	(___wmul@product+1)^0,f,c
  5764   002736  5033               	movf	(___wmul@multiplier+1)^0,w,c
  5765   002738  0234               	mulwf	___wmul@multiplicand^0,c
  5766   00273A  50F3               	movf	243,w,c
  5767   00273C  2637               	addwf	(___wmul@product+1)^0,f,c
  5768   00273E  C036  F032         	movff	___wmul@product,?___wmul
  5769   002742  C037  F033         	movff	___wmul@product+1,?___wmul+1
  5770   002746  0012               	return		;funcret
  5771   002748                     __end_of___wmul:
  5772                           	callstack 0
  5773                           
  5774 ;; *************** function _dash_board *****************
  5775 ;; Defined at:
  5776 ;;		line 12 in file "black_box.c"
  5777 ;; Parameters:    Size  Location     Type
  5778 ;;		None
  5779 ;; Auto vars:     Size  Location     Type
  5780 ;;  i               2   31[COMRAM] short 
  5781 ;;  speed           2   33[COMRAM] unsigned short 
  5782 ;; Return value:  Size  Location     Type
  5783 ;;                  1    wreg      void 
  5784 ;; Registers used:
  5785 ;;		wreg, fsr0l, fsr0h, fsr2l, fsr2h, status,2, status,0, tblptrl, tblptrh, tblptru, prodl, prodh, cstack
  5786 ;; Tracked objects:
  5787 ;;		On entry : 0/0
  5788 ;;		On exit  : 0/0
  5789 ;;		Unchanged: 0/0
  5790 ;; Data sizes:     COMRAM   BANK0   BANK1   BANK2   BANK3   BANK4   BANK5
  5791 ;;      Params:         0       0       0       0       0       0       0
  5792 ;;      Locals:         4       0       0       0       0       0       0
  5793 ;;      Temps:          0       0       0       0       0       0       0
  5794 ;;      Totals:         4       0       0       0       0       0       0
  5795 ;;Total ram usage:        4 bytes
  5796 ;; Hardware stack levels used: 1
  5797 ;; Hardware stack levels required when called: 6
  5798 ;; This function calls:
  5799 ;;		___lwdiv
  5800 ;;		___lwmod
  5801 ;;		_clcd_print
  5802 ;;		_clcd_putch
  5803 ;;		_clcd_write
  5804 ;;		_get_time
  5805 ;;		_read_adc
  5806 ;;		_store_in_eeprom
  5807 ;; This function is called by:
  5808 ;;		_main
  5809 ;; This function uses a non-reentrant model
  5810 ;;
  5811                           
  5812                           	psect	text23
  5813   001854                     __ptext23:
  5814                           	callstack 0
  5815   001854                     _dash_board:
  5816                           	callstack 24
  5817   001854                     
  5818                           ;black_box.c: 15:     unsigned short speed = read_adc(4)/10;
  5819   001854  0E04               	movlw	4
  5820   001856  ECF5  F012         	call	_read_adc
  5821   00185A  C032  F038         	movff	?_read_adc,___lwdiv@dividend
  5822   00185E  C033  F039         	movff	?_read_adc+1,___lwdiv@dividend+1
  5823   001862  0E00               	movlw	0
  5824   001864  6E3B               	movwf	(___lwdiv@divisor+1)^0,c
  5825   001866  0E0A               	movlw	10
  5826   001868  6E3A               	movwf	___lwdiv@divisor^0,c
  5827   00186A  ECAA  F010         	call	___lwdiv	;wreg free
  5828   00186E  C038  F053         	movff	?___lwdiv,dash_board@speed
  5829   001872  C039  F054         	movff	?___lwdiv+1,dash_board@speed+1
  5830   001876                     
  5831                           ;black_box.c: 16:     clcd_print(dashboard,(0x80 + (0)));
  5832   001876  0E82               	movlw	low _dashboard
  5833   001878  6E34               	movwf	clcd_print@data^0,c
  5834   00187A  6A35               	clrf	(clcd_print@data+1)^0,c
  5835   00187C  0E80               	movlw	128
  5836   00187E  6E36               	movwf	clcd_print@addr^0,c
  5837   001880  EC56  F011         	call	_clcd_print	;wreg free
  5838   001884                     
  5839                           ;black_box.c: 17:     get_time();
  5840   001884  EC68  F010         	call	_get_time	;wreg free
  5841                           
  5842                           ;black_box.c: 18:     clcd_print(time,(0xC0 + (0)));
  5843   001888  0E92               	movlw	low _time
  5844   00188A  6E34               	movwf	clcd_print@data^0,c
  5845   00188C  6A35               	clrf	(clcd_print@data+1)^0,c
  5846   00188E  0EC0               	movlw	192
  5847   001890  6E36               	movwf	clcd_print@addr^0,c
  5848   001892  EC56  F011         	call	_clcd_print	;wreg free
  5849   001896                     
  5850                           ;black_box.c: 19:     if(key == (char*)1)
  5851   001896  0428               	decf	_key^0,w,c
  5852   001898  1029               	iorwf	(_key+1)^0,w,c
  5853   00189A  A4D8               	btfss	status,2,c
  5854   00189C  EF52  F00C         	goto	u2161
  5855   0018A0  EF54  F00C         	goto	u2160
  5856   0018A4                     u2161:
  5857   0018A4  EF7C  F00C         	goto	l3520
  5858   0018A8                     u2160:
  5859   0018A8                     
  5860                           ;black_box.c: 20:     {;black_box.c: 21:         if(i != 8)
  5861   0018A8  0E08               	movlw	8
  5862   0018AA  1824               	xorwf	_i^0,w,c
  5863   0018AC  1025               	iorwf	(_i+1)^0,w,c
  5864   0018AE  B4D8               	btfsc	status,2,c
  5865   0018B0  EF5C  F00C         	goto	u2171
  5866   0018B4  EF5E  F00C         	goto	u2170
  5867   0018B8                     u2171:
  5868   0018B8  EF78  F00C         	goto	l3518
  5869   0018BC                     u2170:
  5870   0018BC                     
  5871                           ;black_box.c: 22:         {;black_box.c: 23:             if(i<7)
  5872   0018BC  BE25               	btfsc	(_i+1)^0,7,c
  5873   0018BE  EF6C  F00C         	goto	u2180
  5874   0018C2  5025               	movf	(_i+1)^0,w,c
  5875   0018C4  E107               	bnz	u2181
  5876   0018C6  0E07               	movlw	7
  5877   0018C8  5C24               	subwf	_i^0,w,c
  5878   0018CA  B0D8               	btfsc	status,0,c
  5879   0018CC  EF6A  F00C         	goto	u2181
  5880   0018D0  EF6C  F00C         	goto	u2180
  5881   0018D4                     u2181:
  5882   0018D4  EF7C  F00C         	goto	l3520
  5883   0018D8                     u2180:
  5884   0018D8                     
  5885                           ;black_box.c: 24:             {;black_box.c: 25:                 i++;
  5886   0018D8  4A24               	infsnz	_i^0,f,c
  5887   0018DA  2A25               	incf	(_i+1)^0,f,c
  5888                           
  5889                           ;black_box.c: 26:                 event_count++;
  5890   0018DC  4A5B               	infsnz	_event_count^0,f,c
  5891   0018DE  2A5C               	incf	(_event_count+1)^0,f,c
  5892   0018E0                     
  5893                           ;black_box.c: 27:                 store_in_eeprom(speed);
  5894   0018E0  C053  F040         	movff	dash_board@speed,store_in_eeprom@speed
  5895   0018E4  C054  F041         	movff	dash_board@speed+1,store_in_eeprom@speed+1
  5896   0018E8  EC60  F00E         	call	_store_in_eeprom	;wreg free
  5897   0018EC  EF7C  F00C         	goto	l3520
  5898   0018F0                     l3518:
  5899                           
  5900                           ;black_box.c: 31:         {;black_box.c: 32:             i=1;
  5901   0018F0  0E00               	movlw	0
  5902   0018F2  6E25               	movwf	(_i+1)^0,c
  5903   0018F4  0E01               	movlw	1
  5904   0018F6  6E24               	movwf	_i^0,c
  5905   0018F8                     l3520:
  5906                           
  5907                           ;black_box.c: 35:     if(key == (char*)2)
  5908   0018F8  0E02               	movlw	2
  5909   0018FA  1828               	xorwf	_key^0,w,c
  5910   0018FC  1029               	iorwf	(_key+1)^0,w,c
  5911   0018FE  A4D8               	btfss	status,2,c
  5912   001900  EF84  F00C         	goto	u2191
  5913   001904  EF86  F00C         	goto	u2190
  5914   001908                     u2191:
  5915   001908  EFAD  F00C         	goto	l3532
  5916   00190C                     u2190:
  5917   00190C                     
  5918                           ;black_box.c: 36:     {;black_box.c: 37:         if(i!= 8)
  5919   00190C  0E08               	movlw	8
  5920   00190E  1824               	xorwf	_i^0,w,c
  5921   001910  1025               	iorwf	(_i+1)^0,w,c
  5922   001912  B4D8               	btfsc	status,2,c
  5923   001914  EF8E  F00C         	goto	u2201
  5924   001918  EF90  F00C         	goto	u2200
  5925   00191C                     u2201:
  5926   00191C  EFA9  F00C         	goto	l3530
  5927   001920                     u2200:
  5928   001920                     
  5929                           ;black_box.c: 38:         {;black_box.c: 39:             if(i>1)
  5930   001920  BE25               	btfsc	(_i+1)^0,7,c
  5931   001922  EF9C  F00C         	goto	u2211
  5932   001926  5025               	movf	(_i+1)^0,w,c
  5933   001928  E109               	bnz	u2210
  5934   00192A  0E02               	movlw	2
  5935   00192C  5C24               	subwf	_i^0,w,c
  5936   00192E  A0D8               	btfss	status,0,c
  5937   001930  EF9C  F00C         	goto	u2211
  5938   001934  EF9E  F00C         	goto	u2210
  5939   001938                     u2211:
  5940   001938  EFAD  F00C         	goto	l3532
  5941   00193C                     u2210:
  5942   00193C                     
  5943                           ;black_box.c: 40:             {;black_box.c: 41:                 i--;
  5944   00193C  0624               	decf	_i^0,f,c
  5945   00193E  A0D8               	btfss	status,0,c
  5946   001940  0625               	decf	(_i+1)^0,f,c
  5947   001942                     
  5948                           ;black_box.c: 42:                 store_in_eeprom(speed);
  5949   001942  C053  F040         	movff	dash_board@speed,store_in_eeprom@speed
  5950   001946  C054  F041         	movff	dash_board@speed+1,store_in_eeprom@speed+1
  5951   00194A  EC60  F00E         	call	_store_in_eeprom	;wreg free
  5952   00194E  EFAD  F00C         	goto	l3532
  5953   001952                     l3530:
  5954                           
  5955                           ;black_box.c: 46:         {;black_box.c: 47:             i=1;
  5956   001952  0E00               	movlw	0
  5957   001954  6E25               	movwf	(_i+1)^0,c
  5958   001956  0E01               	movlw	1
  5959   001958  6E24               	movwf	_i^0,c
  5960   00195A                     l3532:
  5961                           
  5962                           ;black_box.c: 50:     if(key == (char*)3)
  5963   00195A  0E03               	movlw	3
  5964   00195C  1828               	xorwf	_key^0,w,c
  5965   00195E  1029               	iorwf	(_key+1)^0,w,c
  5966   001960  A4D8               	btfss	status,2,c
  5967   001962  EFB5  F00C         	goto	u2221
  5968   001966  EFB7  F00C         	goto	u2220
  5969   00196A                     u2221:
  5970   00196A  EFC3  F00C         	goto	l3540
  5971   00196E                     u2220:
  5972   00196E                     
  5973                           ;black_box.c: 51:     {;black_box.c: 52:         i=8;
  5974   00196E  0E00               	movlw	0
  5975   001970  6E25               	movwf	(_i+1)^0,c
  5976   001972  0E08               	movlw	8
  5977   001974  6E24               	movwf	_i^0,c
  5978   001976                     
  5979                           ;black_box.c: 53:         event_count++;
  5980   001976  4A5B               	infsnz	_event_count^0,f,c
  5981   001978  2A5C               	incf	(_event_count+1)^0,f,c
  5982   00197A                     
  5983                           ;black_box.c: 54:         store_in_eeprom(speed);
  5984   00197A  C053  F040         	movff	dash_board@speed,store_in_eeprom@speed
  5985   00197E  C054  F041         	movff	dash_board@speed+1,store_in_eeprom@speed+1
  5986   001982  EC60  F00E         	call	_store_in_eeprom	;wreg free
  5987   001986                     l3540:
  5988                           
  5989                           ;black_box.c: 56:     if (key == (char*)11 || key == (char*)12)
  5990   001986  0E0B               	movlw	11
  5991   001988  1828               	xorwf	_key^0,w,c
  5992   00198A  1029               	iorwf	(_key+1)^0,w,c
  5993   00198C  B4D8               	btfsc	status,2,c
  5994   00198E  EFCB  F00C         	goto	u2231
  5995   001992  EFCD  F00C         	goto	u2230
  5996   001996                     u2231:
  5997   001996  EFD7  F00C         	goto	l3544
  5998   00199A                     u2230:
  5999   00199A  0E0C               	movlw	12
  6000   00199C  1828               	xorwf	_key^0,w,c
  6001   00199E  1029               	iorwf	(_key+1)^0,w,c
  6002   0019A0  A4D8               	btfss	status,2,c
  6003   0019A2  EFD5  F00C         	goto	u2241
  6004   0019A6  EFD7  F00C         	goto	u2240
  6005   0019AA                     u2241:
  6006   0019AA  EFF6  F00C         	goto	l3562
  6007   0019AE                     u2240:
  6008   0019AE                     l3544:
  6009                           
  6010                           ;black_box.c: 57:     {;black_box.c: 58:         clcd_write(0x01, 0);
  6011   0019AE  0E00               	movlw	0
  6012   0019B0  6E32               	movwf	clcd_write@control_bit^0,c
  6013   0019B2  0E01               	movlw	1
  6014   0019B4  EC35  F013         	call	_clcd_write
  6015   0019B8                     
  6016                           ;black_box.c: 59:         for(short i=1000;i!=0;i--);
  6017   0019B8  0E03               	movlw	3
  6018   0019BA  6E52               	movwf	(dash_board@i+1)^0,c
  6019   0019BC  0EE8               	movlw	232
  6020   0019BE  6E51               	movwf	dash_board@i^0,c
  6021   0019C0                     l3552:
  6022   0019C0  0651               	decf	dash_board@i^0,f,c
  6023   0019C2  A0D8               	btfss	status,0,c
  6024   0019C4  0652               	decf	(dash_board@i+1)^0,f,c
  6025   0019C6  5051               	movf	dash_board@i^0,w,c
  6026   0019C8  1052               	iorwf	(dash_board@i+1)^0,w,c
  6027   0019CA  A4D8               	btfss	status,2,c
  6028   0019CC  EFEA  F00C         	goto	u2251
  6029   0019D0  EFEC  F00C         	goto	u2250
  6030   0019D4                     u2251:
  6031   0019D4  EFE0  F00C         	goto	l3552
  6032   0019D8                     u2250:
  6033   0019D8                     
  6034                           ;black_box.c: 60:         main_flag = 1;
  6035   0019D8  0E00               	movlw	0
  6036   0019DA  6E27               	movwf	(_main_flag+1)^0,c
  6037   0019DC  0E01               	movlw	1
  6038   0019DE  6E26               	movwf	_main_flag^0,c
  6039   0019E0                     
  6040                           ;black_box.c: 61:         key=0xFF;
  6041   0019E0  0EFF               	movlw	255
  6042   0019E2  6E28               	movwf	_key^0,c
  6043   0019E4  0E00               	movlw	0
  6044   0019E6  6E29               	movwf	(_key+1)^0,c
  6045   0019E8  EF56  F00D         	goto	l178
  6046   0019EC                     l3562:
  6047                           
  6048                           ;black_box.c: 65:     clcd_print(event[i],(0xC0 + (10)));
  6049   0019EC  5024               	movf	_i^0,w,c
  6050   0019EE  0D02               	mullw	2
  6051   0019F0  50F3               	movf	243,w,c
  6052   0019F2  0F60               	addlw	low _event
  6053   0019F4  6ED9               	movwf	fsr2l,c
  6054   0019F6  6ADA               	clrf	fsr2h,c
  6055   0019F8  CFDE F034          	movff	postinc2,clcd_print@data
  6056   0019FC  CFDD F035          	movff	postdec2,clcd_print@data+1
  6057   001A00  0ECA               	movlw	202
  6058   001A02  6E36               	movwf	clcd_print@addr^0,c
  6059   001A04  EC56  F011         	call	_clcd_print	;wreg free
  6060   001A08                     
  6061                           ;black_box.c: 67:     if(speed > 99)
  6062   001A08  5054               	movf	(dash_board@speed+1)^0,w,c
  6063   001A0A  E109               	bnz	u2260
  6064   001A0C  0E64               	movlw	100
  6065   001A0E  5C53               	subwf	dash_board@speed^0,w,c
  6066   001A10  A0D8               	btfss	status,0,c
  6067   001A12  EF0D  F00D         	goto	u2261
  6068   001A16  EF0F  F00D         	goto	u2260
  6069   001A1A                     u2261:
  6070   001A1A  EF13  F00D         	goto	l3568
  6071   001A1E                     u2260:
  6072   001A1E                     
  6073                           ;black_box.c: 68:         speed = 99;
  6074   001A1E  0E00               	movlw	0
  6075   001A20  6E54               	movwf	(dash_board@speed+1)^0,c
  6076   001A22  0E63               	movlw	99
  6077   001A24  6E53               	movwf	dash_board@speed^0,c
  6078   001A26                     l3568:
  6079                           
  6080                           ;black_box.c: 69:     clcd_putch((speed / 10) + 48, (0xC0 + (13)));
  6081   001A26  0ECD               	movlw	205
  6082   001A28  6E40               	movwf	clcd_putch@addr^0,c
  6083   001A2A  C053  F038         	movff	dash_board@speed,___lwdiv@dividend
  6084   001A2E  C054  F039         	movff	dash_board@speed+1,___lwdiv@dividend+1
  6085   001A32  0E00               	movlw	0
  6086   001A34  6E3B               	movwf	(___lwdiv@divisor+1)^0,c
  6087   001A36  0E0A               	movlw	10
  6088   001A38  6E3A               	movwf	___lwdiv@divisor^0,c
  6089   001A3A  ECAA  F010         	call	___lwdiv	;wreg free
  6090   001A3E  5038               	movf	?___lwdiv^0,w,c
  6091   001A40  0F30               	addlw	48
  6092   001A42  ECCF  F013         	call	_clcd_putch
  6093   001A46                     
  6094                           ;black_box.c: 70:     clcd_putch((speed % 10) + 48, (0xC0 + (14)));
  6095   001A46  0ECE               	movlw	206
  6096   001A48  6E40               	movwf	clcd_putch@addr^0,c
  6097   001A4A  C053  F032         	movff	dash_board@speed,___lwmod@dividend
  6098   001A4E  C054  F033         	movff	dash_board@speed+1,___lwmod@dividend+1
  6099   001A52  0E00               	movlw	0
  6100   001A54  6E35               	movwf	(___lwmod@divisor+1)^0,c
  6101   001A56  0E0A               	movlw	10
  6102   001A58  6E34               	movwf	___lwmod@divisor^0,c
  6103   001A5A  EC8C  F011         	call	___lwmod	;wreg free
  6104   001A5E  5032               	movf	?___lwmod^0,w,c
  6105   001A60  0F30               	addlw	48
  6106   001A62  ECCF  F013         	call	_clcd_putch
  6107   001A66                     
  6108                           ;black_box.c: 72:     static short f=1;;black_box.c: 73:     if(f)
  6109   001A66  0100               	movlb	0	; () banked
  6110   001A68  517E               	movf	dash_board@f& (0+255),w,b
  6111   001A6A  117F               	iorwf	(dash_board@f+1)& (0+255),w,b
  6112   001A6C  B4D8               	btfsc	status,2,c
  6113   001A6E  EF3B  F00D         	goto	u2271
  6114   001A72  EF3D  F00D         	goto	u2270
  6115   001A76                     u2271:
  6116   001A76  EF48  F00D         	goto	l3578
  6117   001A7A                     u2270:
  6118   001A7A                     
  6119                           ; BSR set to: 0
  6120                           ;black_box.c: 74:     {;black_box.c: 75:       store_in_eeprom(speed);
  6121   001A7A  C053  F040         	movff	dash_board@speed,store_in_eeprom@speed
  6122   001A7E  C054  F041         	movff	dash_board@speed+1,store_in_eeprom@speed+1
  6123   001A82  EC60  F00E         	call	_store_in_eeprom	;wreg free
  6124   001A86                     
  6125                           ;black_box.c: 76:       f=0;
  6126   001A86  0E00               	movlw	0
  6127   001A88  0100               	movlb	0	; () banked
  6128   001A8A  6F7F               	movwf	(dash_board@f+1)& (0+255),b
  6129   001A8C  0E00               	movlw	0
  6130   001A8E  6F7E               	movwf	dash_board@f& (0+255),b
  6131   001A90                     l3578:
  6132                           
  6133                           ; BSR set to: 0
  6134                           ;black_box.c: 78:     if(event_count == 10)
  6135   001A90  0E0A               	movlw	10
  6136   001A92  185B               	xorwf	_event_count^0,w,c
  6137   001A94  105C               	iorwf	(_event_count+1)^0,w,c
  6138   001A96  A4D8               	btfss	status,2,c
  6139   001A98  EF50  F00D         	goto	u2281
  6140   001A9C  EF52  F00D         	goto	u2280
  6141   001AA0                     u2281:
  6142   001AA0  EF56  F00D         	goto	l178
  6143   001AA4                     u2280:
  6144   001AA4                     
  6145                           ; BSR set to: 0
  6146                           ;black_box.c: 79:     {;black_box.c: 80:         event_count = 9;
  6147   001AA4  0E00               	movlw	0
  6148   001AA6  6E5C               	movwf	(_event_count+1)^0,c
  6149   001AA8  0E09               	movlw	9
  6150   001AAA  6E5B               	movwf	_event_count^0,c
  6151   001AAC                     l178:
  6152   001AAC  0012               	return		;funcret
  6153   001AAE                     __end_of_dash_board:
  6154                           	callstack 0
  6155                           
  6156 ;; *************** function _store_in_eeprom *****************
  6157 ;; Defined at:
  6158 ;;		line 111 in file "black_box.c"
  6159 ;; Parameters:    Size  Location     Type
  6160 ;;  speed           2   14[COMRAM] int 
  6161 ;; Auto vars:     Size  Location     Type
  6162 ;;  i               2   29[COMRAM] int 
  6163 ;;  data           11   18[COMRAM] unsigned char [11]
  6164 ;; Return value:  Size  Location     Type
  6165 ;;                  1    wreg      void 
  6166 ;; Registers used:
  6167 ;;		wreg, fsr2l, fsr2h, status,2, status,0, tblptrl, tblptrh, tblptru, prodl, prodh, cstack
  6168 ;; Tracked objects:
  6169 ;;		On entry : 0/0
  6170 ;;		On exit  : 0/0
  6171 ;;		Unchanged: 0/0
  6172 ;; Data sizes:     COMRAM   BANK0   BANK1   BANK2   BANK3   BANK4   BANK5
  6173 ;;      Params:         2       0       0       0       0       0       0
  6174 ;;      Locals:        13       0       0       0       0       0       0
  6175 ;;      Temps:          2       0       0       0       0       0       0
  6176 ;;      Totals:        17       0       0       0       0       0       0
  6177 ;;Total ram usage:       17 bytes
  6178 ;; Hardware stack levels used: 1
  6179 ;; Hardware stack levels required when called: 4
  6180 ;; This function calls:
  6181 ;;		___awdiv
  6182 ;;		___awmod
  6183 ;;		_write_external_eeprom
  6184 ;; This function is called by:
  6185 ;;		_dash_board
  6186 ;; This function uses a non-reentrant model
  6187 ;;
  6188                           
  6189                           	psect	text24
  6190   001CC0                     __ptext24:
  6191                           	callstack 0
  6192   001CC0                     _store_in_eeprom:
  6193                           	callstack 25
  6194   001CC0                     
  6195                           ;black_box.c: 111: void store_in_eeprom(int speed);black_box.c: 112: {;black_box.c: 113:
      +                               static unsigned int j= 0x00;;black_box.c: 114:     unsigned char data[11] = {0};
  6196   001CC0  EE20  F044         	lfsr	2,store_in_eeprom@data
  6197   001CC4  0E0A               	movlw	10
  6198   001CC6                     u2001:
  6199   001CC6  6ADE               	clrf	postinc2,c
  6200   001CC8  06E8               	decf	wreg,f,c
  6201   001CCA  E2FD               	bc	u2001
  6202   001CCC                     
  6203                           ;black_box.c: 115:     data[0] = time[0];
  6204   001CCC  C092  F044         	movff	_time,store_in_eeprom@data
  6205   001CD0                     
  6206                           ;black_box.c: 116:     data[1] = time[1];
  6207   001CD0  C093  F045         	movff	_time+1,store_in_eeprom@data+1
  6208   001CD4                     
  6209                           ;black_box.c: 117:     data[2] = time[3];
  6210   001CD4  C095  F046         	movff	_time+3,store_in_eeprom@data+2
  6211   001CD8                     
  6212                           ;black_box.c: 118:     data[3] = time[4];
  6213   001CD8  C096  F047         	movff	_time+4,store_in_eeprom@data+3
  6214   001CDC                     
  6215                           ;black_box.c: 119:     data[4] = time[6];
  6216   001CDC  C098  F048         	movff	_time+6,store_in_eeprom@data+4
  6217   001CE0                     
  6218                           ;black_box.c: 120:     data[5] = time[7];
  6219   001CE0  C099  F049         	movff	_time+7,store_in_eeprom@data+5
  6220   001CE4                     
  6221                           ;black_box.c: 122:     data[6] = event[i][0];
  6222   001CE4  5024               	movf	_i^0,w,c
  6223   001CE6  0D02               	mullw	2
  6224   001CE8  50F3               	movf	243,w,c
  6225   001CEA  0F60               	addlw	low _event
  6226   001CEC  6ED9               	movwf	fsr2l,c
  6227   001CEE  6ADA               	clrf	fsr2h,c
  6228   001CF0  CFDE FFF6          	movff	postinc2,tblptrl
  6229   001CF4  CFDD FFF7          	movff	postdec2,tblptrh
  6230   001CF8                     	if	0	;tblptru may be non-zero
  6231   001CF8                     	endif
  6232   001CF8                     	if	0	;tblptru may be non-zero
  6233   001CF8                     	endif
  6234   001CF8  0008               	tblrd		*
  6235   001CFA  CFF5 F04A          	movff	tablat,store_in_eeprom@data+6
  6236   001CFE                     
  6237                           ;black_box.c: 123:     data[7] = event[i][1];
  6238   001CFE  5024               	movf	_i^0,w,c
  6239   001D00  0D02               	mullw	2
  6240   001D02  50F3               	movf	243,w,c
  6241   001D04  0F60               	addlw	low _event
  6242   001D06  6ED9               	movwf	fsr2l,c
  6243   001D08  6ADA               	clrf	fsr2h,c
  6244   001D0A  CFDE F042          	movff	postinc2,??_store_in_eeprom
  6245   001D0E  CFDD F043          	movff	postdec2,??_store_in_eeprom+1
  6246   001D12  0E01               	movlw	1
  6247   001D14  2642               	addwf	??_store_in_eeprom^0,f,c
  6248   001D16  0E00               	movlw	0
  6249   001D18  2243               	addwfc	(??_store_in_eeprom+1)^0,f,c
  6250   001D1A  C042  FFF6         	movff	??_store_in_eeprom,tblptrl
  6251   001D1E  C043  FFF7         	movff	??_store_in_eeprom+1,tblptrh
  6252   001D22                     	if	0	;tblptru may be non-zero
  6253   001D22                     	endif
  6254   001D22                     	if	0	;tblptru may be non-zero
  6255   001D22                     	endif
  6256   001D22  0008               	tblrd		*
  6257   001D24  CFF5 F04B          	movff	tablat,store_in_eeprom@data+7
  6258   001D28                     
  6259                           ;black_box.c: 125:     data[8]=((speed/10) + 48);
  6260   001D28  C040  F032         	movff	store_in_eeprom@speed,___awdiv@dividend
  6261   001D2C  C041  F033         	movff	store_in_eeprom@speed+1,___awdiv@dividend+1
  6262   001D30  0E00               	movlw	0
  6263   001D32  6E35               	movwf	(___awdiv@divisor+1)^0,c
  6264   001D34  0E0A               	movlw	10
  6265   001D36  6E34               	movwf	___awdiv@divisor^0,c
  6266   001D38  EC5A  F00F         	call	___awdiv	;wreg free
  6267   001D3C  5032               	movf	?___awdiv^0,w,c
  6268   001D3E  0F30               	addlw	48
  6269   001D40  6E4C               	movwf	(store_in_eeprom@data+8)^0,c
  6270   001D42                     
  6271                           ;black_box.c: 126:     data[9]=((speed%10) + 48);
  6272   001D42  C040  F03A         	movff	store_in_eeprom@speed,___awmod@dividend
  6273   001D46  C041  F03B         	movff	store_in_eeprom@speed+1,___awmod@dividend+1
  6274   001D4A  0E00               	movlw	0
  6275   001D4C  6E3D               	movwf	(___awmod@divisor+1)^0,c
  6276   001D4E  0E0A               	movlw	10
  6277   001D50  6E3C               	movwf	___awmod@divisor^0,c
  6278   001D52  ECBC  F00F         	call	___awmod	;wreg free
  6279   001D56  503A               	movf	?___awmod^0,w,c
  6280   001D58  0F30               	addlw	48
  6281   001D5A  6E4D               	movwf	(store_in_eeprom@data+9)^0,c
  6282   001D5C                     
  6283                           ;black_box.c: 127:     for(int i=0;i<10;i++)
  6284   001D5C  0E00               	movlw	0
  6285   001D5E  6E50               	movwf	(store_in_eeprom@i+1)^0,c
  6286   001D60  0E00               	movlw	0
  6287   001D62  6E4F               	movwf	store_in_eeprom@i^0,c
  6288   001D64                     l3382:
  6289                           
  6290                           ;black_box.c: 128:     {;black_box.c: 129:         write_external_eeprom(j+i, data[i]);
  6291   001D64  504F               	movf	store_in_eeprom@i^0,w,c
  6292   001D66  0F44               	addlw	low store_in_eeprom@data
  6293   001D68  6ED9               	movwf	fsr2l,c
  6294   001D6A  6ADA               	clrf	fsr2h,c
  6295   001D6C  50DF               	movf	indf2,w,c
  6296   001D6E  6E33               	movwf	write_external_eeprom@data^0,c
  6297   001D70  504F               	movf	store_in_eeprom@i^0,w,c
  6298   001D72  2422               	addwf	store_in_eeprom@j^0,w,c
  6299   001D74  EC15  F013         	call	_write_external_eeprom
  6300   001D78                     
  6301                           ;black_box.c: 130:     }
  6302   001D78  4A4F               	infsnz	store_in_eeprom@i^0,f,c
  6303   001D7A  2A50               	incf	(store_in_eeprom@i+1)^0,f,c
  6304   001D7C  BE50               	btfsc	(store_in_eeprom@i+1)^0,7,c
  6305   001D7E  EFCA  F00E         	goto	u2011
  6306   001D82  5050               	movf	(store_in_eeprom@i+1)^0,w,c
  6307   001D84  E109               	bnz	u2010
  6308   001D86  0E0A               	movlw	10
  6309   001D88  5C4F               	subwf	store_in_eeprom@i^0,w,c
  6310   001D8A  A0D8               	btfss	status,0,c
  6311   001D8C  EFCA  F00E         	goto	u2011
  6312   001D90  EFCC  F00E         	goto	u2010
  6313   001D94                     u2011:
  6314   001D94  EFB2  F00E         	goto	l3382
  6315   001D98                     u2010:
  6316   001D98                     
  6317                           ;black_box.c: 131:     j = j + 10;
  6318   001D98  0E0A               	movlw	10
  6319   001D9A  2422               	addwf	store_in_eeprom@j^0,w,c
  6320   001D9C  6E22               	movwf	store_in_eeprom@j^0,c
  6321   001D9E  0E00               	movlw	0
  6322   001DA0  2023               	addwfc	(store_in_eeprom@j+1)^0,w,c
  6323   001DA2  6E23               	movwf	(store_in_eeprom@j+1)^0,c
  6324                           
  6325                           ;black_box.c: 132:     if(j == 100)
  6326   001DA4  0E64               	movlw	100
  6327   001DA6  1822               	xorwf	store_in_eeprom@j^0,w,c
  6328   001DA8  1023               	iorwf	(store_in_eeprom@j+1)^0,w,c
  6329   001DAA  A4D8               	btfss	status,2,c
  6330   001DAC  EFDA  F00E         	goto	u2021
  6331   001DB0  EFDC  F00E         	goto	u2020
  6332   001DB4                     u2021:
  6333   001DB4  EFE0  F00E         	goto	l198
  6334   001DB8                     u2020:
  6335   001DB8                     
  6336                           ;black_box.c: 133:         j = 0;
  6337   001DB8  0E00               	movlw	0
  6338   001DBA  6E23               	movwf	(store_in_eeprom@j+1)^0,c
  6339   001DBC  0E00               	movlw	0
  6340   001DBE  6E22               	movwf	store_in_eeprom@j^0,c
  6341   001DC0                     l198:
  6342   001DC0  0012               	return		;funcret
  6343   001DC2                     __end_of_store_in_eeprom:
  6344                           	callstack 0
  6345                           
  6346 ;; *************** function ___awmod *****************
  6347 ;; Defined at:
  6348 ;;		line 7 in file "C:\Program Files\Microchip\xc8\v2.46\pic\sources\c99\common\awmod.c"
  6349 ;; Parameters:    Size  Location     Type
  6350 ;;  dividend        2    8[COMRAM] int 
  6351 ;;  divisor         2   10[COMRAM] int 
  6352 ;; Auto vars:     Size  Location     Type
  6353 ;;  sign            1   13[COMRAM] unsigned char 
  6354 ;;  counter         1   12[COMRAM] unsigned char 
  6355 ;; Return value:  Size  Location     Type
  6356 ;;                  2    8[COMRAM] int 
  6357 ;; Registers used:
  6358 ;;		wreg, status,2, status,0
  6359 ;; Tracked objects:
  6360 ;;		On entry : 0/0
  6361 ;;		On exit  : 0/0
  6362 ;;		Unchanged: 0/0
  6363 ;; Data sizes:     COMRAM   BANK0   BANK1   BANK2   BANK3   BANK4   BANK5
  6364 ;;      Params:         4       0       0       0       0       0       0
  6365 ;;      Locals:         2       0       0       0       0       0       0
  6366 ;;      Temps:          0       0       0       0       0       0       0
  6367 ;;      Totals:         6       0       0       0       0       0       0
  6368 ;;Total ram usage:        6 bytes
  6369 ;; Hardware stack levels used: 1
  6370 ;; Hardware stack levels required when called: 1
  6371 ;; This function calls:
  6372 ;;		Nothing
  6373 ;; This function is called by:
  6374 ;;		_store_in_eeprom
  6375 ;;		_login_screen
  6376 ;; This function uses a non-reentrant model
  6377 ;;
  6378                           
  6379                           	psect	text25
  6380   001F78                     __ptext25:
  6381                           	callstack 0
  6382   001F78                     ___awmod:
  6383                           	callstack 28
  6384   001F78  0E00               	movlw	0
  6385   001F7A  6E3F               	movwf	___awmod@sign^0,c
  6386   001F7C  BE3B               	btfsc	(___awmod@dividend+1)^0,7,c
  6387   001F7E  EFC5  F00F         	goto	u1890
  6388   001F82  EFC3  F00F         	goto	u1891
  6389   001F86                     u1891:
  6390   001F86  EFCB  F00F         	goto	l3238
  6391   001F8A                     u1890:
  6392   001F8A  6C3A               	negf	___awmod@dividend^0,c
  6393   001F8C  1E3B               	comf	(___awmod@dividend+1)^0,f,c
  6394   001F8E  B0D8               	btfsc	status,0,c
  6395   001F90  2A3B               	incf	(___awmod@dividend+1)^0,f,c
  6396   001F92  0E01               	movlw	1
  6397   001F94  6E3F               	movwf	___awmod@sign^0,c
  6398   001F96                     l3238:
  6399   001F96  BE3D               	btfsc	(___awmod@divisor+1)^0,7,c
  6400   001F98  EFD2  F00F         	goto	u1900
  6401   001F9C  EFD0  F00F         	goto	u1901
  6402   001FA0                     u1901:
  6403   001FA0  EFD6  F00F         	goto	l3242
  6404   001FA4                     u1900:
  6405   001FA4  6C3C               	negf	___awmod@divisor^0,c
  6406   001FA6  1E3D               	comf	(___awmod@divisor+1)^0,f,c
  6407   001FA8  B0D8               	btfsc	status,0,c
  6408   001FAA  2A3D               	incf	(___awmod@divisor+1)^0,f,c
  6409   001FAC                     l3242:
  6410   001FAC  503C               	movf	___awmod@divisor^0,w,c
  6411   001FAE  103D               	iorwf	(___awmod@divisor+1)^0,w,c
  6412   001FB0  B4D8               	btfsc	status,2,c
  6413   001FB2  EFDD  F00F         	goto	u1911
  6414   001FB6  EFDF  F00F         	goto	u1910
  6415   001FBA                     u1911:
  6416   001FBA  EF03  F010         	goto	l3258
  6417   001FBE                     u1910:
  6418   001FBE  0E01               	movlw	1
  6419   001FC0  6E3E               	movwf	___awmod@counter^0,c
  6420   001FC2  EFE7  F00F         	goto	l3248
  6421   001FC6                     l3246:
  6422   001FC6  90D8               	bcf	status,0,c
  6423   001FC8  363C               	rlcf	___awmod@divisor^0,f,c
  6424   001FCA  363D               	rlcf	(___awmod@divisor+1)^0,f,c
  6425   001FCC  2A3E               	incf	___awmod@counter^0,f,c
  6426   001FCE                     l3248:
  6427   001FCE  AE3D               	btfss	(___awmod@divisor+1)^0,7,c
  6428   001FD0  EFEC  F00F         	goto	u1921
  6429   001FD4  EFEE  F00F         	goto	u1920
  6430   001FD8                     u1921:
  6431   001FD8  EFE3  F00F         	goto	l3246
  6432   001FDC                     u1920:
  6433   001FDC                     l3250:
  6434   001FDC  503C               	movf	___awmod@divisor^0,w,c
  6435   001FDE  5C3A               	subwf	___awmod@dividend^0,w,c
  6436   001FE0  503D               	movf	(___awmod@divisor+1)^0,w,c
  6437   001FE2  583B               	subwfb	(___awmod@dividend+1)^0,w,c
  6438   001FE4  A0D8               	btfss	status,0,c
  6439   001FE6  EFF7  F00F         	goto	u1931
  6440   001FEA  EFF9  F00F         	goto	u1930
  6441   001FEE                     u1931:
  6442   001FEE  EFFD  F00F         	goto	l3254
  6443   001FF2                     u1930:
  6444   001FF2  503C               	movf	___awmod@divisor^0,w,c
  6445   001FF4  5E3A               	subwf	___awmod@dividend^0,f,c
  6446   001FF6  503D               	movf	(___awmod@divisor+1)^0,w,c
  6447   001FF8  5A3B               	subwfb	(___awmod@dividend+1)^0,f,c
  6448   001FFA                     l3254:
  6449   001FFA  90D8               	bcf	status,0,c
  6450   001FFC  323D               	rrcf	(___awmod@divisor+1)^0,f,c
  6451   001FFE  323C               	rrcf	___awmod@divisor^0,f,c
  6452   002000  2E3E               	decfsz	___awmod@counter^0,f,c
  6453   002002  EFEE  F00F         	goto	l3250
  6454   002006                     l3258:
  6455   002006  503F               	movf	___awmod@sign^0,w,c
  6456   002008  B4D8               	btfsc	status,2,c
  6457   00200A  EF09  F010         	goto	u1941
  6458   00200E  EF0B  F010         	goto	u1940
  6459   002012                     u1941:
  6460   002012  EF0F  F010         	goto	l3262
  6461   002016                     u1940:
  6462   002016  6C3A               	negf	___awmod@dividend^0,c
  6463   002018  1E3B               	comf	(___awmod@dividend+1)^0,f,c
  6464   00201A  B0D8               	btfsc	status,0,c
  6465   00201C  2A3B               	incf	(___awmod@dividend+1)^0,f,c
  6466   00201E                     l3262:
  6467   00201E  C03A  F03A         	movff	___awmod@dividend,?___awmod
  6468   002022  C03B  F03B         	movff	___awmod@dividend+1,?___awmod+1
  6469   002026  0012               	return		;funcret
  6470   002028                     __end_of___awmod:
  6471                           	callstack 0
  6472                           
  6473 ;; *************** function ___awdiv *****************
  6474 ;; Defined at:
  6475 ;;		line 7 in file "C:\Program Files\Microchip\xc8\v2.46\pic\sources\c99\common\awdiv.c"
  6476 ;; Parameters:    Size  Location     Type
  6477 ;;  dividend        2    0[COMRAM] int 
  6478 ;;  divisor         2    2[COMRAM] int 
  6479 ;; Auto vars:     Size  Location     Type
  6480 ;;  quotient        2    6[COMRAM] int 
  6481 ;;  sign            1    5[COMRAM] unsigned char 
  6482 ;;  counter         1    4[COMRAM] unsigned char 
  6483 ;; Return value:  Size  Location     Type
  6484 ;;                  2    0[COMRAM] int 
  6485 ;; Registers used:
  6486 ;;		wreg, status,2, status,0
  6487 ;; Tracked objects:
  6488 ;;		On entry : 0/0
  6489 ;;		On exit  : 0/0
  6490 ;;		Unchanged: 0/0
  6491 ;; Data sizes:     COMRAM   BANK0   BANK1   BANK2   BANK3   BANK4   BANK5
  6492 ;;      Params:         4       0       0       0       0       0       0
  6493 ;;      Locals:         4       0       0       0       0       0       0
  6494 ;;      Temps:          0       0       0       0       0       0       0
  6495 ;;      Totals:         8       0       0       0       0       0       0
  6496 ;;Total ram usage:        8 bytes
  6497 ;; Hardware stack levels used: 1
  6498 ;; Hardware stack levels required when called: 1
  6499 ;; This function calls:
  6500 ;;		Nothing
  6501 ;; This function is called by:
  6502 ;;		_store_in_eeprom
  6503 ;;		_login_screen
  6504 ;; This function uses a non-reentrant model
  6505 ;;
  6506                           
  6507                           	psect	text26
  6508   001EB4                     __ptext26:
  6509                           	callstack 0
  6510   001EB4                     ___awdiv:
  6511                           	callstack 28
  6512   001EB4  0E00               	movlw	0
  6513   001EB6  6E37               	movwf	___awdiv@sign^0,c
  6514   001EB8  BE35               	btfsc	(___awdiv@divisor+1)^0,7,c
  6515   001EBA  EF63  F00F         	goto	u1830
  6516   001EBE  EF61  F00F         	goto	u1831
  6517   001EC2                     u1831:
  6518   001EC2  EF69  F00F         	goto	l3194
  6519   001EC6                     u1830:
  6520   001EC6  6C34               	negf	___awdiv@divisor^0,c
  6521   001EC8  1E35               	comf	(___awdiv@divisor+1)^0,f,c
  6522   001ECA  B0D8               	btfsc	status,0,c
  6523   001ECC  2A35               	incf	(___awdiv@divisor+1)^0,f,c
  6524   001ECE  0E01               	movlw	1
  6525   001ED0  6E37               	movwf	___awdiv@sign^0,c
  6526   001ED2                     l3194:
  6527   001ED2  BE33               	btfsc	(___awdiv@dividend+1)^0,7,c
  6528   001ED4  EF70  F00F         	goto	u1840
  6529   001ED8  EF6E  F00F         	goto	u1841
  6530   001EDC                     u1841:
  6531   001EDC  EF76  F00F         	goto	l3200
  6532   001EE0                     u1840:
  6533   001EE0  6C32               	negf	___awdiv@dividend^0,c
  6534   001EE2  1E33               	comf	(___awdiv@dividend+1)^0,f,c
  6535   001EE4  B0D8               	btfsc	status,0,c
  6536   001EE6  2A33               	incf	(___awdiv@dividend+1)^0,f,c
  6537   001EE8  0E01               	movlw	1
  6538   001EEA  1A37               	xorwf	___awdiv@sign^0,f,c
  6539   001EEC                     l3200:
  6540   001EEC  0E00               	movlw	0
  6541   001EEE  6E39               	movwf	(___awdiv@quotient+1)^0,c
  6542   001EF0  0E00               	movlw	0
  6543   001EF2  6E38               	movwf	___awdiv@quotient^0,c
  6544   001EF4  5034               	movf	___awdiv@divisor^0,w,c
  6545   001EF6  1035               	iorwf	(___awdiv@divisor+1)^0,w,c
  6546   001EF8  B4D8               	btfsc	status,2,c
  6547   001EFA  EF81  F00F         	goto	u1851
  6548   001EFE  EF83  F00F         	goto	u1850
  6549   001F02                     u1851:
  6550   001F02  EFAB  F00F         	goto	l3222
  6551   001F06                     u1850:
  6552   001F06  0E01               	movlw	1
  6553   001F08  6E36               	movwf	___awdiv@counter^0,c
  6554   001F0A  EF8B  F00F         	goto	l3208
  6555   001F0E                     l3206:
  6556   001F0E  90D8               	bcf	status,0,c
  6557   001F10  3634               	rlcf	___awdiv@divisor^0,f,c
  6558   001F12  3635               	rlcf	(___awdiv@divisor+1)^0,f,c
  6559   001F14  2A36               	incf	___awdiv@counter^0,f,c
  6560   001F16                     l3208:
  6561   001F16  AE35               	btfss	(___awdiv@divisor+1)^0,7,c
  6562   001F18  EF90  F00F         	goto	u1861
  6563   001F1C  EF92  F00F         	goto	u1860
  6564   001F20                     u1861:
  6565   001F20  EF87  F00F         	goto	l3206
  6566   001F24                     u1860:
  6567   001F24                     l3210:
  6568   001F24  90D8               	bcf	status,0,c
  6569   001F26  3638               	rlcf	___awdiv@quotient^0,f,c
  6570   001F28  3639               	rlcf	(___awdiv@quotient+1)^0,f,c
  6571   001F2A  5034               	movf	___awdiv@divisor^0,w,c
  6572   001F2C  5C32               	subwf	___awdiv@dividend^0,w,c
  6573   001F2E  5035               	movf	(___awdiv@divisor+1)^0,w,c
  6574   001F30  5833               	subwfb	(___awdiv@dividend+1)^0,w,c
  6575   001F32  A0D8               	btfss	status,0,c
  6576   001F34  EF9E  F00F         	goto	u1871
  6577   001F38  EFA0  F00F         	goto	u1870
  6578   001F3C                     u1871:
  6579   001F3C  EFA5  F00F         	goto	l3218
  6580   001F40                     u1870:
  6581   001F40  5034               	movf	___awdiv@divisor^0,w,c
  6582   001F42  5E32               	subwf	___awdiv@dividend^0,f,c
  6583   001F44  5035               	movf	(___awdiv@divisor+1)^0,w,c
  6584   001F46  5A33               	subwfb	(___awdiv@dividend+1)^0,f,c
  6585   001F48  8038               	bsf	___awdiv@quotient^0,0,c
  6586   001F4A                     l3218:
  6587   001F4A  90D8               	bcf	status,0,c
  6588   001F4C  3235               	rrcf	(___awdiv@divisor+1)^0,f,c
  6589   001F4E  3234               	rrcf	___awdiv@divisor^0,f,c
  6590   001F50  2E36               	decfsz	___awdiv@counter^0,f,c
  6591   001F52  EF92  F00F         	goto	l3210
  6592   001F56                     l3222:
  6593   001F56  5037               	movf	___awdiv@sign^0,w,c
  6594   001F58  B4D8               	btfsc	status,2,c
  6595   001F5A  EFB1  F00F         	goto	u1881
  6596   001F5E  EFB3  F00F         	goto	u1880
  6597   001F62                     u1881:
  6598   001F62  EFB7  F00F         	goto	l3226
  6599   001F66                     u1880:
  6600   001F66  6C38               	negf	___awdiv@quotient^0,c
  6601   001F68  1E39               	comf	(___awdiv@quotient+1)^0,f,c
  6602   001F6A  B0D8               	btfsc	status,0,c
  6603   001F6C  2A39               	incf	(___awdiv@quotient+1)^0,f,c
  6604   001F6E                     l3226:
  6605   001F6E  C038  F032         	movff	___awdiv@quotient,?___awdiv
  6606   001F72  C039  F033         	movff	___awdiv@quotient+1,?___awdiv+1
  6607   001F76  0012               	return		;funcret
  6608   001F78                     __end_of___awdiv:
  6609                           	callstack 0
  6610                           
  6611 ;; *************** function _read_adc *****************
  6612 ;; Defined at:
  6613 ;;		line 33 in file "adc_p.c"
  6614 ;; Parameters:    Size  Location     Type
  6615 ;;  channel         1    wreg     unsigned char 
  6616 ;; Auto vars:     Size  Location     Type
  6617 ;;  channel         1    5[COMRAM] unsigned char 
  6618 ;; Return value:  Size  Location     Type
  6619 ;;                  2    0[COMRAM] unsigned short 
  6620 ;; Registers used:
  6621 ;;		wreg, status,2, status,0
  6622 ;; Tracked objects:
  6623 ;;		On entry : 0/0
  6624 ;;		On exit  : 0/0
  6625 ;;		Unchanged: 0/0
  6626 ;; Data sizes:     COMRAM   BANK0   BANK1   BANK2   BANK3   BANK4   BANK5
  6627 ;;      Params:         2       0       0       0       0       0       0
  6628 ;;      Locals:         1       0       0       0       0       0       0
  6629 ;;      Temps:          3       0       0       0       0       0       0
  6630 ;;      Totals:         6       0       0       0       0       0       0
  6631 ;;Total ram usage:        6 bytes
  6632 ;; Hardware stack levels used: 1
  6633 ;; Hardware stack levels required when called: 1
  6634 ;; This function calls:
  6635 ;;		Nothing
  6636 ;; This function is called by:
  6637 ;;		_dash_board
  6638 ;; This function uses a non-reentrant model
  6639 ;;
  6640                           
  6641                           	psect	text27
  6642   0025EA                     __ptext27:
  6643                           	callstack 0
  6644   0025EA                     _read_adc:
  6645                           	callstack 28
  6646                           
  6647                           ;incstack = 0
  6648                           ;read_adc@channel stored from wreg
  6649   0025EA  6E37               	movwf	read_adc@channel^0,c
  6650   0025EC                     
  6651                           ;adc_p.c: 33: unsigned short read_adc(unsigned char channel);adc_p.c: 34: {;adc_p.c: 35:
      +                               ADCON0 = (ADCON0 & 0XC3) | (channel << 2);
  6652   0025EC  C037  F034         	movff	read_adc@channel,??_read_adc
  6653   0025F0  90D8               	bcf	status,0,c
  6654   0025F2  3634               	rlcf	??_read_adc^0,f,c
  6655   0025F4  90D8               	bcf	status,0,c
  6656   0025F6  3634               	rlcf	??_read_adc^0,f,c
  6657   0025F8  50C2               	movf	194,w,c	;volatile
  6658   0025FA  0BC3               	andlw	195
  6659   0025FC  1034               	iorwf	??_read_adc^0,w,c
  6660   0025FE  6EC2               	movwf	194,c	;volatile
  6661   002600                     
  6662                           ;adc_p.c: 36:     GO =1;
  6663   002600  82C2               	bsf	4034,1,c	;volatile
  6664   002602                     l521:
  6665   002602  B2C2               	btfsc	4034,1,c	;volatile
  6666   002604  EF06  F013         	goto	u1951
  6667   002608  EF08  F013         	goto	u1950
  6668   00260C                     u1951:
  6669   00260C  EF01  F013         	goto	l521
  6670   002610                     u1950:
  6671   002610                     
  6672                           ;adc_p.c: 38:     return ((ADRESH& 0X03)<<8)|ADRESL;
  6673   002610  CFC4 F034          	movff	4036,??_read_adc	;volatile
  6674   002614  0E03               	movlw	3
  6675   002616  1634               	andwf	??_read_adc^0,f,c
  6676   002618  5034               	movf	??_read_adc^0,w,c
  6677   00261A  6E36               	movwf	(??_read_adc+2)^0,c
  6678   00261C  6A35               	clrf	(??_read_adc+1)^0,c
  6679   00261E  50C3               	movf	195,w,c	;volatile
  6680   002620  1035               	iorwf	(??_read_adc+1)^0,w,c
  6681   002622  6E32               	movwf	?_read_adc^0,c
  6682   002624  5036               	movf	(??_read_adc+2)^0,w,c
  6683   002626  6E33               	movwf	(?_read_adc+1)^0,c
  6684   002628  0012               	return		;funcret
  6685   00262A                     __end_of_read_adc:
  6686                           	callstack 0
  6687                           
  6688 ;; *************** function _get_time *****************
  6689 ;; Defined at:
  6690 ;;		line 84 in file "black_box.c"
  6691 ;; Parameters:    Size  Location     Type
  6692 ;;		None
  6693 ;; Auto vars:     Size  Location     Type
  6694 ;;		None
  6695 ;; Return value:  Size  Location     Type
  6696 ;;                  1    wreg      void 
  6697 ;; Registers used:
  6698 ;;		wreg, status,2, status,0, cstack
  6699 ;; Tracked objects:
  6700 ;;		On entry : 0/0
  6701 ;;		On exit  : 0/0
  6702 ;;		Unchanged: 0/0
  6703 ;; Data sizes:     COMRAM   BANK0   BANK1   BANK2   BANK3   BANK4   BANK5
  6704 ;;      Params:         0       0       0       0       0       0       0
  6705 ;;      Locals:         0       0       0       0       0       0       0
  6706 ;;      Temps:          0       0       0       0       0       0       0
  6707 ;;      Totals:         0       0       0       0       0       0       0
  6708 ;;Total ram usage:        0 bytes
  6709 ;; Hardware stack levels used: 1
  6710 ;; Hardware stack levels required when called: 5
  6711 ;; This function calls:
  6712 ;;		_read_ds1307
  6713 ;; This function is called by:
  6714 ;;		_dash_board
  6715 ;; This function uses a non-reentrant model
  6716 ;;
  6717                           
  6718                           	psect	text28
  6719   0020D0                     __ptext28:
  6720                           	callstack 0
  6721   0020D0                     _get_time:
  6722                           	callstack 24
  6723   0020D0                     
  6724                           ;black_box.c: 86:  clock_reg[0] = read_ds1307(0x02);
  6725   0020D0  0E02               	movlw	2
  6726   0020D2  EC67  F013         	call	_read_ds1307
  6727   0020D6  6E05               	movwf	_clock_reg^0,c
  6728                           
  6729                           ;black_box.c: 87:  clock_reg[1] = read_ds1307(0x01);
  6730   0020D8  0E01               	movlw	1
  6731   0020DA  EC67  F013         	call	_read_ds1307
  6732   0020DE  6E06               	movwf	(_clock_reg+1)^0,c
  6733                           
  6734                           ;black_box.c: 88:  clock_reg[2] = read_ds1307(0x00);
  6735   0020E0  0E00               	movlw	0
  6736   0020E2  EC67  F013         	call	_read_ds1307
  6737   0020E6  6E07               	movwf	(_clock_reg+2)^0,c
  6738   0020E8                     
  6739                           ;black_box.c: 90:  if (clock_reg[0] & 0x40)
  6740   0020E8  AC05               	btfss	_clock_reg^0,6,c
  6741   0020EA  EF79  F010         	goto	u1991
  6742   0020EE  EF7B  F010         	goto	u1990
  6743   0020F2                     u1991:
  6744   0020F2  EF87  F010         	goto	l3340
  6745   0020F6                     u1990:
  6746   0020F6                     
  6747                           ;black_box.c: 91:  {;black_box.c: 92:   time[0] = '0' + ((clock_reg[0] >> 4) & 0x01);
  6748   0020F6  3805               	swapf	_clock_reg^0,w,c
  6749   0020F8  0B0F               	andlw	15
  6750   0020FA  0B01               	andlw	1
  6751   0020FC  0F30               	addlw	48
  6752   0020FE  0100               	movlb	0	; () banked
  6753   002100  6F92               	movwf	_time& (0+255),b
  6754                           
  6755                           ;black_box.c: 93:   time[1] = '0' + (clock_reg[0] & 0x0F);
  6756   002102  5005               	movf	_clock_reg^0,w,c
  6757   002104  0B0F               	andlw	15
  6758   002106  0F30               	addlw	48
  6759   002108  6F93               	movwf	(_time+1)& (0+255),b
  6760                           
  6761                           ;black_box.c: 94:  }
  6762   00210A  EF91  F010         	goto	l3342
  6763   00210E                     l3340:
  6764                           
  6765                           ;black_box.c: 96:  {;black_box.c: 97:   time[0] = '0' + ((clock_reg[0] >> 4) & 0x03);
  6766   00210E  3805               	swapf	_clock_reg^0,w,c
  6767   002110  0B0F               	andlw	15
  6768   002112  0B03               	andlw	3
  6769   002114  0F30               	addlw	48
  6770   002116  0100               	movlb	0	; () banked
  6771   002118  6F92               	movwf	_time& (0+255),b
  6772                           
  6773                           ;black_box.c: 98:   time[1] = '0' + (clock_reg[0] & 0x0F);
  6774   00211A  5005               	movf	_clock_reg^0,w,c
  6775   00211C  0B0F               	andlw	15
  6776   00211E  0F30               	addlw	48
  6777   002120  6F93               	movwf	(_time+1)& (0+255),b
  6778   002122                     l3342:
  6779                           
  6780                           ; BSR set to: 0
  6781                           ;black_box.c: 100:  time[2] = ':';
  6782   002122  0E3A               	movlw	58
  6783   002124  6F94               	movwf	(_time+2)& (0+255),b
  6784   002126                     
  6785                           ; BSR set to: 0
  6786                           ;black_box.c: 101:  time[3] = '0' + ((clock_reg[1] >> 4) & 0x0F);
  6787   002126  3806               	swapf	(_clock_reg+1)^0,w,c
  6788   002128  0B0F               	andlw	15
  6789   00212A  0B0F               	andlw	15
  6790   00212C  0F30               	addlw	48
  6791   00212E  6F95               	movwf	(_time+3)& (0+255),b
  6792   002130                     
  6793                           ; BSR set to: 0
  6794                           ;black_box.c: 102:  time[4] = '0' + (clock_reg[1] & 0x0F);
  6795   002130  5006               	movf	(_clock_reg+1)^0,w,c
  6796   002132  0B0F               	andlw	15
  6797   002134  0F30               	addlw	48
  6798   002136  6F96               	movwf	(_time+4)& (0+255),b
  6799   002138                     
  6800                           ; BSR set to: 0
  6801                           ;black_box.c: 103:  time[5] = ':';
  6802   002138  0E3A               	movlw	58
  6803   00213A  6F97               	movwf	(_time+5)& (0+255),b
  6804                           
  6805                           ;black_box.c: 104:  time[6] = '0' + ((clock_reg[2] >> 4) & 0x0F);
  6806   00213C  3807               	swapf	(_clock_reg+2)^0,w,c
  6807   00213E  0B0F               	andlw	15
  6808   002140  0B0F               	andlw	15
  6809   002142  0F30               	addlw	48
  6810   002144  6F98               	movwf	(_time+6)& (0+255),b
  6811                           
  6812                           ;black_box.c: 105:  time[7] = '0' + (clock_reg[2] & 0x0F);
  6813   002146  5007               	movf	(_clock_reg+2)^0,w,c
  6814   002148  0B0F               	andlw	15
  6815   00214A  0F30               	addlw	48
  6816   00214C  6F99               	movwf	(_time+7)& (0+255),b
  6817   00214E                     
  6818                           ; BSR set to: 0
  6819                           ;black_box.c: 106:  time[8] = '\0';
  6820   00214E  0E00               	movlw	0
  6821   002150  6F9A               	movwf	(_time+8)& (0+255),b
  6822   002152                     
  6823                           ; BSR set to: 0
  6824   002152  0012               	return		;funcret
  6825   002154                     __end_of_get_time:
  6826                           	callstack 0
  6827                           
  6828 ;; *************** function _read_ds1307 *****************
  6829 ;; Defined at:
  6830 ;;		line 60 in file "ds1307_p.c"
  6831 ;; Parameters:    Size  Location     Type
  6832 ;;  address         1    wreg     unsigned char 
  6833 ;; Auto vars:     Size  Location     Type
  6834 ;;  address         1    1[COMRAM] unsigned char 
  6835 ;;  data            1    2[COMRAM] unsigned char 
  6836 ;; Return value:  Size  Location     Type
  6837 ;;                  1    wreg      unsigned char 
  6838 ;; Registers used:
  6839 ;;		wreg, status,2, cstack
  6840 ;; Tracked objects:
  6841 ;;		On entry : 0/0
  6842 ;;		On exit  : 0/0
  6843 ;;		Unchanged: 0/0
  6844 ;; Data sizes:     COMRAM   BANK0   BANK1   BANK2   BANK3   BANK4   BANK5
  6845 ;;      Params:         0       0       0       0       0       0       0
  6846 ;;      Locals:         2       0       0       0       0       0       0
  6847 ;;      Temps:          0       0       0       0       0       0       0
  6848 ;;      Totals:         2       0       0       0       0       0       0
  6849 ;;Total ram usage:        2 bytes
  6850 ;; Hardware stack levels used: 1
  6851 ;; Hardware stack levels required when called: 4
  6852 ;; This function calls:
  6853 ;;		_i2c_read
  6854 ;;		_i2c_rep_start
  6855 ;;		_i2c_start
  6856 ;;		_i2c_stop
  6857 ;;		_i2c_write
  6858 ;; This function is called by:
  6859 ;;		_get_time
  6860 ;;		_init_ds1307
  6861 ;; This function uses a non-reentrant model
  6862 ;;
  6863                           
  6864                           	psect	text29
  6865   0026CE                     __ptext29:
  6866                           	callstack 0
  6867   0026CE                     _read_ds1307:
  6868                           	callstack 24
  6869                           
  6870                           ; BSR set to: 0
  6871                           ;incstack = 0
  6872                           ;read_ds1307@address stored from wreg
  6873   0026CE  6E33               	movwf	read_ds1307@address^0,c
  6874   0026D0                     
  6875                           ;ds1307_p.c: 60: unsigned char read_ds1307(unsigned char address);ds1307_p.c: 61: {;ds13
      +                          07_p.c: 62:  unsigned char data;;ds1307_p.c: 64:  i2c_start();
  6876   0026D0  EC1F  F014         	call	_i2c_start	;wreg free
  6877   0026D4                     
  6878                           ;ds1307_p.c: 65:  i2c_write(0xD0);
  6879   0026D4  0ED0               	movlw	208
  6880   0026D6  EC09  F014         	call	_i2c_write
  6881   0026DA                     
  6882                           ;ds1307_p.c: 66:  i2c_write(address);
  6883   0026DA  5033               	movf	read_ds1307@address^0,w,c
  6884   0026DC  EC09  F014         	call	_i2c_write
  6885   0026E0                     
  6886                           ;ds1307_p.c: 67:  i2c_rep_start();
  6887   0026E0  EC13  F014         	call	_i2c_rep_start	;wreg free
  6888   0026E4                     
  6889                           ;ds1307_p.c: 68:  i2c_write(0xD1);
  6890   0026E4  0ED1               	movlw	209
  6891   0026E6  EC09  F014         	call	_i2c_write
  6892                           
  6893                           ;ds1307_p.c: 69:  data = i2c_read();
  6894   0026EA  EC03  F014         	call	_i2c_read	;wreg free
  6895   0026EE  6E34               	movwf	read_ds1307@data^0,c
  6896   0026F0                     
  6897                           ;ds1307_p.c: 70:  i2c_stop();
  6898   0026F0  EC1B  F014         	call	_i2c_stop	;wreg free
  6899                           
  6900                           ;ds1307_p.c: 72:  return data;
  6901   0026F4  5034               	movf	read_ds1307@data^0,w,c
  6902   0026F6  0012               	return		;funcret
  6903   0026F8                     __end_of_read_ds1307:
  6904                           	callstack 0
  6905                           
  6906 ;; *************** function _i2c_rep_start *****************
  6907 ;; Defined at:
  6908 ;;		line 57 in file "i2c_p.c"
  6909 ;; Parameters:    Size  Location     Type
  6910 ;;		None
  6911 ;; Auto vars:     Size  Location     Type
  6912 ;;		None
  6913 ;; Return value:  Size  Location     Type
  6914 ;;                  1    wreg      void 
  6915 ;; Registers used:
  6916 ;;		cstack
  6917 ;; Tracked objects:
  6918 ;;		On entry : 0/0
  6919 ;;		On exit  : 0/0
  6920 ;;		Unchanged: 0/0
  6921 ;; Data sizes:     COMRAM   BANK0   BANK1   BANK2   BANK3   BANK4   BANK5
  6922 ;;      Params:         0       0       0       0       0       0       0
  6923 ;;      Locals:         0       0       0       0       0       0       0
  6924 ;;      Temps:          0       0       0       0       0       0       0
  6925 ;;      Totals:         0       0       0       0       0       0       0
  6926 ;;Total ram usage:        0 bytes
  6927 ;; Hardware stack levels used: 1
  6928 ;; Hardware stack levels required when called: 2
  6929 ;; This function calls:
  6930 ;;		_i2c_idle
  6931 ;; This function is called by:
  6932 ;;		_read_ds1307
  6933 ;;		_read_external_eeprom
  6934 ;; This function uses a non-reentrant model
  6935 ;;
  6936                           
  6937                           	psect	text30
  6938   002826                     __ptext30:
  6939                           	callstack 0
  6940   002826                     _i2c_rep_start:
  6941                           	callstack 25
  6942   002826                     
  6943                           ;i2c_p.c: 59:  RSEN = 1;
  6944   002826  82C5               	bsf	4037,1,c	;volatile
  6945   002828                     
  6946                           ;i2c_p.c: 60:  i2c_idle();
  6947   002828  ECFA  F013         	call	_i2c_idle	;wreg free
  6948   00282C  0012               	return		;funcret
  6949   00282E                     __end_of_i2c_rep_start:
  6950                           	callstack 0
  6951                           
  6952 ;; *************** function _i2c_read *****************
  6953 ;; Defined at:
  6954 ;;		line 81 in file "i2c_p.c"
  6955 ;; Parameters:    Size  Location     Type
  6956 ;;		None
  6957 ;; Auto vars:     Size  Location     Type
  6958 ;;		None
  6959 ;; Return value:  Size  Location     Type
  6960 ;;                  1    wreg      unsigned char 
  6961 ;; Registers used:
  6962 ;;		wreg, status,2, cstack
  6963 ;; Tracked objects:
  6964 ;;		On entry : 0/0
  6965 ;;		On exit  : 0/0
  6966 ;;		Unchanged: 0/0
  6967 ;; Data sizes:     COMRAM   BANK0   BANK1   BANK2   BANK3   BANK4   BANK5
  6968 ;;      Params:         0       0       0       0       0       0       0
  6969 ;;      Locals:         0       0       0       0       0       0       0
  6970 ;;      Temps:          0       0       0       0       0       0       0
  6971 ;;      Totals:         0       0       0       0       0       0       0
  6972 ;;Total ram usage:        0 bytes
  6973 ;; Hardware stack levels used: 1
  6974 ;; Hardware stack levels required when called: 3
  6975 ;; This function calls:
  6976 ;;		_i2c_no_ack
  6977 ;;		_i2c_rx_mode
  6978 ;; This function is called by:
  6979 ;;		_read_ds1307
  6980 ;;		_read_external_eeprom
  6981 ;; This function uses a non-reentrant model
  6982 ;;
  6983                           
  6984                           	psect	text31
  6985   002806                     __ptext31:
  6986                           	callstack 0
  6987   002806                     _i2c_read:
  6988                           	callstack 24
  6989   002806                     
  6990                           ;i2c_p.c: 83:  i2c_rx_mode();
  6991   002806  EC17  F014         	call	_i2c_rx_mode	;wreg free
  6992                           
  6993                           ;i2c_p.c: 84:  i2c_no_ack();
  6994   00280A  EC27  F014         	call	_i2c_no_ack	;wreg free
  6995   00280E                     
  6996                           ;i2c_p.c: 86:  return SSPBUF;
  6997   00280E  50C9               	movf	201,w,c	;volatile
  6998   002810  0012               	return		;funcret
  6999   002812                     __end_of_i2c_read:
  7000                           	callstack 0
  7001                           
  7002 ;; *************** function _i2c_rx_mode *****************
  7003 ;; Defined at:
  7004 ;;		line 69 in file "i2c_p.c"
  7005 ;; Parameters:    Size  Location     Type
  7006 ;;		None
  7007 ;; Auto vars:     Size  Location     Type
  7008 ;;		None
  7009 ;; Return value:  Size  Location     Type
  7010 ;;                  1    wreg      void 
  7011 ;; Registers used:
  7012 ;;		cstack
  7013 ;; Tracked objects:
  7014 ;;		On entry : 0/0
  7015 ;;		On exit  : 0/0
  7016 ;;		Unchanged: 0/0
  7017 ;; Data sizes:     COMRAM   BANK0   BANK1   BANK2   BANK3   BANK4   BANK5
  7018 ;;      Params:         0       0       0       0       0       0       0
  7019 ;;      Locals:         0       0       0       0       0       0       0
  7020 ;;      Temps:          0       0       0       0       0       0       0
  7021 ;;      Totals:         0       0       0       0       0       0       0
  7022 ;;Total ram usage:        0 bytes
  7023 ;; Hardware stack levels used: 1
  7024 ;; Hardware stack levels required when called: 2
  7025 ;; This function calls:
  7026 ;;		_i2c_idle
  7027 ;; This function is called by:
  7028 ;;		_i2c_read
  7029 ;; This function uses a non-reentrant model
  7030 ;;
  7031                           
  7032                           	psect	text32
  7033   00282E                     __ptext32:
  7034                           	callstack 0
  7035   00282E                     _i2c_rx_mode:
  7036                           	callstack 24
  7037   00282E                     
  7038                           ;i2c_p.c: 71:  RCEN = 1;
  7039   00282E  86C5               	bsf	4037,3,c	;volatile
  7040   002830                     
  7041                           ;i2c_p.c: 72:  i2c_idle();
  7042   002830  ECFA  F013         	call	_i2c_idle	;wreg free
  7043   002834  0012               	return		;funcret
  7044   002836                     __end_of_i2c_rx_mode:
  7045                           	callstack 0
  7046                           
  7047 ;; *************** function _i2c_no_ack *****************
  7048 ;; Defined at:
  7049 ;;		line 75 in file "i2c_p.c"
  7050 ;; Parameters:    Size  Location     Type
  7051 ;;		None
  7052 ;; Auto vars:     Size  Location     Type
  7053 ;;		None
  7054 ;; Return value:  Size  Location     Type
  7055 ;;                  1    wreg      void 
  7056 ;; Registers used:
  7057 ;;		None
  7058 ;; Tracked objects:
  7059 ;;		On entry : 0/0
  7060 ;;		On exit  : 0/0
  7061 ;;		Unchanged: 0/0
  7062 ;; Data sizes:     COMRAM   BANK0   BANK1   BANK2   BANK3   BANK4   BANK5
  7063 ;;      Params:         0       0       0       0       0       0       0
  7064 ;;      Locals:         0       0       0       0       0       0       0
  7065 ;;      Temps:          0       0       0       0       0       0       0
  7066 ;;      Totals:         0       0       0       0       0       0       0
  7067 ;;Total ram usage:        0 bytes
  7068 ;; Hardware stack levels used: 1
  7069 ;; Hardware stack levels required when called: 1
  7070 ;; This function calls:
  7071 ;;		Nothing
  7072 ;; This function is called by:
  7073 ;;		_i2c_read
  7074 ;; This function uses a non-reentrant model
  7075 ;;
  7076                           
  7077                           	psect	text33
  7078   00284E                     __ptext33:
  7079                           	callstack 0
  7080   00284E                     _i2c_no_ack:
  7081                           	callstack 25
  7082   00284E                     
  7083                           ;i2c_p.c: 77:  ACKDT = 1;
  7084   00284E  8AC5               	bsf	4037,5,c	;volatile
  7085                           
  7086                           ;i2c_p.c: 78:  ACKEN = 1;
  7087   002850  88C5               	bsf	4037,4,c	;volatile
  7088   002852  0012               	return		;funcret
  7089   002854                     __end_of_i2c_no_ack:
  7090                           	callstack 0
  7091                           
  7092 ;; *************** function ___lwmod *****************
  7093 ;; Defined at:
  7094 ;;		line 7 in file "C:\Program Files\Microchip\xc8\v2.46\pic\sources\c99\common\lwmod.c"
  7095 ;; Parameters:    Size  Location     Type
  7096 ;;  dividend        2    0[COMRAM] unsigned int 
  7097 ;;  divisor         2    2[COMRAM] unsigned int 
  7098 ;; Auto vars:     Size  Location     Type
  7099 ;;  counter         1    4[COMRAM] unsigned char 
  7100 ;; Return value:  Size  Location     Type
  7101 ;;                  2    0[COMRAM] unsigned int 
  7102 ;; Registers used:
  7103 ;;		wreg, status,2, status,0
  7104 ;; Tracked objects:
  7105 ;;		On entry : 0/0
  7106 ;;		On exit  : 0/0
  7107 ;;		Unchanged: 0/0
  7108 ;; Data sizes:     COMRAM   BANK0   BANK1   BANK2   BANK3   BANK4   BANK5
  7109 ;;      Params:         4       0       0       0       0       0       0
  7110 ;;      Locals:         1       0       0       0       0       0       0
  7111 ;;      Temps:          0       0       0       0       0       0       0
  7112 ;;      Totals:         5       0       0       0       0       0       0
  7113 ;;Total ram usage:        5 bytes
  7114 ;; Hardware stack levels used: 1
  7115 ;; Hardware stack levels required when called: 1
  7116 ;; This function calls:
  7117 ;;		Nothing
  7118 ;; This function is called by:
  7119 ;;		_dash_board
  7120 ;;		_set_time
  7121 ;; This function uses a non-reentrant model
  7122 ;;
  7123                           
  7124                           	psect	text34
  7125   002318                     __ptext34:
  7126                           	callstack 0
  7127   002318                     ___lwmod:
  7128                           	callstack 28
  7129   002318  5034               	movf	___lwmod@divisor^0,w,c
  7130   00231A  1035               	iorwf	(___lwmod@divisor+1)^0,w,c
  7131   00231C  B4D8               	btfsc	status,2,c
  7132   00231E  EF93  F011         	goto	u2131
  7133   002322  EF95  F011         	goto	u2130
  7134   002326                     u2131:
  7135   002326  EFB9  F011         	goto	l1470
  7136   00232A                     u2130:
  7137   00232A  0E01               	movlw	1
  7138   00232C  6E36               	movwf	___lwmod@counter^0,c
  7139   00232E  EF9D  F011         	goto	l3470
  7140   002332                     l3468:
  7141   002332  90D8               	bcf	status,0,c
  7142   002334  3634               	rlcf	___lwmod@divisor^0,f,c
  7143   002336  3635               	rlcf	(___lwmod@divisor+1)^0,f,c
  7144   002338  2A36               	incf	___lwmod@counter^0,f,c
  7145   00233A                     l3470:
  7146   00233A  AE35               	btfss	(___lwmod@divisor+1)^0,7,c
  7147   00233C  EFA2  F011         	goto	u2141
  7148   002340  EFA4  F011         	goto	u2140
  7149   002344                     u2141:
  7150   002344  EF99  F011         	goto	l3468
  7151   002348                     u2140:
  7152   002348                     l3472:
  7153   002348  5034               	movf	___lwmod@divisor^0,w,c
  7154   00234A  5C32               	subwf	___lwmod@dividend^0,w,c
  7155   00234C  5035               	movf	(___lwmod@divisor+1)^0,w,c
  7156   00234E  5833               	subwfb	(___lwmod@dividend+1)^0,w,c
  7157   002350  A0D8               	btfss	status,0,c
  7158   002352  EFAD  F011         	goto	u2151
  7159   002356  EFAF  F011         	goto	u2150
  7160   00235A                     u2151:
  7161   00235A  EFB3  F011         	goto	l3476
  7162   00235E                     u2150:
  7163   00235E  5034               	movf	___lwmod@divisor^0,w,c
  7164   002360  5E32               	subwf	___lwmod@dividend^0,f,c
  7165   002362  5035               	movf	(___lwmod@divisor+1)^0,w,c
  7166   002364  5A33               	subwfb	(___lwmod@dividend+1)^0,f,c
  7167   002366                     l3476:
  7168   002366  90D8               	bcf	status,0,c
  7169   002368  3235               	rrcf	(___lwmod@divisor+1)^0,f,c
  7170   00236A  3234               	rrcf	___lwmod@divisor^0,f,c
  7171   00236C  2E36               	decfsz	___lwmod@counter^0,f,c
  7172   00236E  EFA4  F011         	goto	l3472
  7173   002372                     l1470:
  7174   002372  C032  F032         	movff	___lwmod@dividend,?___lwmod
  7175   002376  C033  F033         	movff	___lwmod@dividend+1,?___lwmod+1
  7176   00237A  0012               	return		;funcret
  7177   00237C                     __end_of___lwmod:
  7178                           	callstack 0
  7179                           
  7180 ;; *************** function ___lwdiv *****************
  7181 ;; Defined at:
  7182 ;;		line 7 in file "C:\Program Files\Microchip\xc8\v2.46\pic\sources\c99\common\lwdiv.c"
  7183 ;; Parameters:    Size  Location     Type
  7184 ;;  dividend        2    6[COMRAM] unsigned int 
  7185 ;;  divisor         2    8[COMRAM] unsigned int 
  7186 ;; Auto vars:     Size  Location     Type
  7187 ;;  quotient        2   10[COMRAM] unsigned int 
  7188 ;;  counter         1   12[COMRAM] unsigned char 
  7189 ;; Return value:  Size  Location     Type
  7190 ;;                  2    6[COMRAM] unsigned int 
  7191 ;; Registers used:
  7192 ;;		wreg, status,2, status,0
  7193 ;; Tracked objects:
  7194 ;;		On entry : 0/0
  7195 ;;		On exit  : 0/0
  7196 ;;		Unchanged: 0/0
  7197 ;; Data sizes:     COMRAM   BANK0   BANK1   BANK2   BANK3   BANK4   BANK5
  7198 ;;      Params:         4       0       0       0       0       0       0
  7199 ;;      Locals:         3       0       0       0       0       0       0
  7200 ;;      Temps:          0       0       0       0       0       0       0
  7201 ;;      Totals:         7       0       0       0       0       0       0
  7202 ;;Total ram usage:        7 bytes
  7203 ;; Hardware stack levels used: 1
  7204 ;; Hardware stack levels required when called: 1
  7205 ;; This function calls:
  7206 ;;		Nothing
  7207 ;; This function is called by:
  7208 ;;		_dash_board
  7209 ;;		_set_time
  7210 ;; This function uses a non-reentrant model
  7211 ;;
  7212                           
  7213                           	psect	text35
  7214   002154                     __ptext35:
  7215                           	callstack 0
  7216   002154                     ___lwdiv:
  7217                           	callstack 28
  7218   002154  0E00               	movlw	0
  7219   002156  6E3D               	movwf	(___lwdiv@quotient+1)^0,c
  7220   002158  0E00               	movlw	0
  7221   00215A  6E3C               	movwf	___lwdiv@quotient^0,c
  7222   00215C  503A               	movf	___lwdiv@divisor^0,w,c
  7223   00215E  103B               	iorwf	(___lwdiv@divisor+1)^0,w,c
  7224   002160  B4D8               	btfsc	status,2,c
  7225   002162  EFB5  F010         	goto	u2101
  7226   002166  EFB7  F010         	goto	u2100
  7227   00216A                     u2101:
  7228   00216A  EFDF  F010         	goto	l1460
  7229   00216E                     u2100:
  7230   00216E  0E01               	movlw	1
  7231   002170  6E3E               	movwf	___lwdiv@counter^0,c
  7232   002172  EFBF  F010         	goto	l3450
  7233   002176                     l3448:
  7234   002176  90D8               	bcf	status,0,c
  7235   002178  363A               	rlcf	___lwdiv@divisor^0,f,c
  7236   00217A  363B               	rlcf	(___lwdiv@divisor+1)^0,f,c
  7237   00217C  2A3E               	incf	___lwdiv@counter^0,f,c
  7238   00217E                     l3450:
  7239   00217E  AE3B               	btfss	(___lwdiv@divisor+1)^0,7,c
  7240   002180  EFC4  F010         	goto	u2111
  7241   002184  EFC6  F010         	goto	u2110
  7242   002188                     u2111:
  7243   002188  EFBB  F010         	goto	l3448
  7244   00218C                     u2110:
  7245   00218C                     l3452:
  7246   00218C  90D8               	bcf	status,0,c
  7247   00218E  363C               	rlcf	___lwdiv@quotient^0,f,c
  7248   002190  363D               	rlcf	(___lwdiv@quotient+1)^0,f,c
  7249   002192  503A               	movf	___lwdiv@divisor^0,w,c
  7250   002194  5C38               	subwf	___lwdiv@dividend^0,w,c
  7251   002196  503B               	movf	(___lwdiv@divisor+1)^0,w,c
  7252   002198  5839               	subwfb	(___lwdiv@dividend+1)^0,w,c
  7253   00219A  A0D8               	btfss	status,0,c
  7254   00219C  EFD2  F010         	goto	u2121
  7255   0021A0  EFD4  F010         	goto	u2120
  7256   0021A4                     u2121:
  7257   0021A4  EFD9  F010         	goto	l3460
  7258   0021A8                     u2120:
  7259   0021A8  503A               	movf	___lwdiv@divisor^0,w,c
  7260   0021AA  5E38               	subwf	___lwdiv@dividend^0,f,c
  7261   0021AC  503B               	movf	(___lwdiv@divisor+1)^0,w,c
  7262   0021AE  5A39               	subwfb	(___lwdiv@dividend+1)^0,f,c
  7263   0021B0  803C               	bsf	___lwdiv@quotient^0,0,c
  7264   0021B2                     l3460:
  7265   0021B2  90D8               	bcf	status,0,c
  7266   0021B4  323B               	rrcf	(___lwdiv@divisor+1)^0,f,c
  7267   0021B6  323A               	rrcf	___lwdiv@divisor^0,f,c
  7268   0021B8  2E3E               	decfsz	___lwdiv@counter^0,f,c
  7269   0021BA  EFC6  F010         	goto	l3452
  7270   0021BE                     l1460:
  7271   0021BE  C03C  F038         	movff	___lwdiv@quotient,?___lwdiv
  7272   0021C2  C03D  F039         	movff	___lwdiv@quotient+1,?___lwdiv+1
  7273   0021C6  0012               	return		;funcret
  7274   0021C8                     __end_of___lwdiv:
  7275                           	callstack 0
  7276                           
  7277 ;; *************** function _clear_log *****************
  7278 ;; Defined at:
  7279 ;;		line 701 in file "black_box.c"
  7280 ;; Parameters:    Size  Location     Type
  7281 ;;		None
  7282 ;; Auto vars:     Size  Location     Type
  7283 ;;		None
  7284 ;; Return value:  Size  Location     Type
  7285 ;;                  1    wreg      void 
  7286 ;; Registers used:
  7287 ;;		wreg, fsr0l, fsr0h, status,2, status,0, tblptrl, tblptrh, tblptru, cstack
  7288 ;; Tracked objects:
  7289 ;;		On entry : 0/0
  7290 ;;		On exit  : 0/0
  7291 ;;		Unchanged: 0/0
  7292 ;; Data sizes:     COMRAM   BANK0   BANK1   BANK2   BANK3   BANK4   BANK5
  7293 ;;      Params:         0       0       0       0       0       0       0
  7294 ;;      Locals:         0       0       0       0       0       0       0
  7295 ;;      Temps:          2       0       0       0       0       0       0
  7296 ;;      Totals:         2       0       0       0       0       0       0
  7297 ;;Total ram usage:        2 bytes
  7298 ;; Hardware stack levels used: 1
  7299 ;; Hardware stack levels required when called: 3
  7300 ;; This function calls:
  7301 ;;		_clcd_print
  7302 ;;		_clcd_write
  7303 ;; This function is called by:
  7304 ;;		_main
  7305 ;; This function uses a non-reentrant model
  7306 ;;
  7307                           
  7308                           	psect	text36
  7309   002438                     __ptext36:
  7310                           	callstack 0
  7311   002438                     _clear_log:
  7312                           	callstack 27
  7313   002438                     
  7314                           ;black_box.c: 703:     clcd_print("Clear Log",(0x80 + (0)));
  7315   002438  0EB7               	movlw	low STR_13
  7316   00243A  6E34               	movwf	clcd_print@data^0,c
  7317   00243C  0E2F               	movlw	high STR_13
  7318   00243E  6E35               	movwf	(clcd_print@data+1)^0,c
  7319   002440  0E80               	movlw	128
  7320   002442  6E36               	movwf	clcd_print@addr^0,c
  7321   002444  EC56  F011         	call	_clcd_print	;wreg free
  7322                           
  7323                           ;black_box.c: 704:     clcd_print("Successfully",(0xC0 + (0)));
  7324   002448  0E72               	movlw	low STR_48
  7325   00244A  6E34               	movwf	clcd_print@data^0,c
  7326   00244C  0E2F               	movlw	high STR_48
  7327   00244E  6E35               	movwf	(clcd_print@data+1)^0,c
  7328   002450  0EC0               	movlw	192
  7329   002452  6E36               	movwf	clcd_print@addr^0,c
  7330   002454  EC56  F011         	call	_clcd_print	;wreg free
  7331   002458                     
  7332                           ;black_box.c: 705:     event_count = 0;
  7333   002458  0E00               	movlw	0
  7334   00245A  6E5C               	movwf	(_event_count+1)^0,c
  7335   00245C  0E00               	movlw	0
  7336   00245E  6E5B               	movwf	_event_count^0,c
  7337   002460                     
  7338                           ;black_box.c: 706:     main_flag = 2;
  7339   002460  0E00               	movlw	0
  7340   002462  6E27               	movwf	(_main_flag+1)^0,c
  7341   002464  0E02               	movlw	2
  7342   002466  6E26               	movwf	_main_flag^0,c
  7343   002468                     
  7344                           ;black_box.c: 707:     _delay((unsigned long)((1500)*(20000000/4000.0)));
  7345   002468  0E27               	movlw	39
  7346   00246A  6E38               	movwf	(??_clear_log+1)^0,c
  7347   00246C  0E0D               	movlw	13
  7348   00246E  6E37               	movwf	??_clear_log^0,c
  7349   002470  0E26               	movlw	38
  7350   002472                     u3477:
  7351   002472  2EE8               	decfsz	wreg,f,c
  7352   002474  D7FE               	bra	u3477
  7353   002476  2E37               	decfsz	??_clear_log^0,f,c
  7354   002478  D7FC               	bra	u3477
  7355   00247A  2E38               	decfsz	(??_clear_log+1)^0,f,c
  7356   00247C  D7FA               	bra	u3477
  7357   00247E  D000               	nop2	
  7358   002480                     
  7359                           ;black_box.c: 708:     clcd_write(0x01, 0);
  7360   002480  0E00               	movlw	0
  7361   002482  6E32               	movwf	clcd_write@control_bit^0,c
  7362   002484  0E01               	movlw	1
  7363   002486  EC35  F013         	call	_clcd_write
  7364   00248A  0012               	return		;funcret
  7365   00248C                     __end_of_clear_log:
  7366                           	callstack 0
  7367                           
  7368 ;; *************** function _change_password *****************
  7369 ;; Defined at:
  7370 ;;		line 318 in file "black_box.c"
  7371 ;; Parameters:    Size  Location     Type
  7372 ;;		None
  7373 ;; Auto vars:     Size  Location     Type
  7374 ;;		None
  7375 ;; Return value:  Size  Location     Type
  7376 ;;                  1    wreg      void 
  7377 ;; Registers used:
  7378 ;;		wreg, fsr0l, fsr0h, fsr1l, fsr1h, fsr2l, fsr2h, status,2, status,0, tblptrl, tblptrh, tblptru, cstack
  7379 ;; Tracked objects:
  7380 ;;		On entry : 0/0
  7381 ;;		On exit  : 0/0
  7382 ;;		Unchanged: 0/0
  7383 ;; Data sizes:     COMRAM   BANK0   BANK1   BANK2   BANK3   BANK4   BANK5
  7384 ;;      Params:         0       0       0       0       0       0       0
  7385 ;;      Locals:         0       0       0       0       0       0       0
  7386 ;;      Temps:          2       0       0       0       0       0       0
  7387 ;;      Totals:         2       0       0       0       0       0       0
  7388 ;;Total ram usage:        2 bytes
  7389 ;; Hardware stack levels used: 1
  7390 ;; Hardware stack levels required when called: 4
  7391 ;; This function calls:
  7392 ;;		_clcd_print
  7393 ;;		_clcd_putch
  7394 ;;		_clcd_write
  7395 ;;		_strcmp
  7396 ;;		_strcpy
  7397 ;;		_write_external_eeprom
  7398 ;; This function is called by:
  7399 ;;		_main
  7400 ;; This function uses a non-reentrant model
  7401 ;;
  7402                           
  7403                           	psect	text37
  7404   0005DC                     __ptext37:
  7405                           	callstack 0
  7406   0005DC                     _change_password:
  7407                           	callstack 26
  7408   0005DC                     
  7409                           ;black_box.c: 320:     static char read_pass[5];;black_box.c: 321:     static char confi
      +                          rm_pass[5];;black_box.c: 322:     static unsigned long int delay1=0, delay2=0;;black_box
      +                          .c: 323:     static unsigned int pass_count=0, pass_count2=0,cs_f=0;;black_box.c: 326:  
      +                             if(pass_count < 4)
  7410   0005DC  5017               	movf	(change_password@pass_count+1)^0,w,c
  7411   0005DE  E107               	bnz	u2971
  7412   0005E0  0E04               	movlw	4
  7413   0005E2  5C16               	subwf	change_password@pass_count^0,w,c
  7414   0005E4  B0D8               	btfsc	status,0,c
  7415   0005E6  EFF7  F002         	goto	u2971
  7416   0005EA  EFF9  F002         	goto	u2970
  7417   0005EE                     u2971:
  7418   0005EE  EF03  F003         	goto	l4144
  7419   0005F2                     u2970:
  7420   0005F2                     
  7421                           ;black_box.c: 327:         clcd_print("new password",(0x80 + (0)));
  7422   0005F2  0E65               	movlw	low STR_36
  7423   0005F4  6E34               	movwf	clcd_print@data^0,c
  7424   0005F6  0E2F               	movlw	high STR_36
  7425   0005F8  6E35               	movwf	(clcd_print@data+1)^0,c
  7426   0005FA  0E80               	movlw	128
  7427   0005FC  6E36               	movwf	clcd_print@addr^0,c
  7428   0005FE  EC56  F011         	call	_clcd_print	;wreg free
  7429   000602  EF2A  F003         	goto	l4154
  7430   000606                     l4144:
  7431   000606  5017               	movf	(change_password@pass_count+1)^0,w,c
  7432   000608  E109               	bnz	u2980
  7433   00060A  0E04               	movlw	4
  7434   00060C  5C16               	subwf	change_password@pass_count^0,w,c
  7435   00060E  A0D8               	btfss	status,0,c
  7436   000610  EF0C  F003         	goto	u2981
  7437   000614  EF0E  F003         	goto	u2980
  7438   000618                     u2981:
  7439   000618  EF2A  F003         	goto	l4154
  7440   00061C                     u2980:
  7441   00061C                     
  7442                           ;black_box.c: 329:     {;black_box.c: 330:         if(cs_f == 0)
  7443   00061C  0100               	movlb	0	; () banked
  7444   00061E  51CA               	movf	change_password@cs_f& (0+255),w,b
  7445   000620  11CB               	iorwf	(change_password@cs_f+1)& (0+255),w,b
  7446   000622  A4D8               	btfss	status,2,c
  7447   000624  EF16  F003         	goto	u2991
  7448   000628  EF18  F003         	goto	u2990
  7449   00062C                     u2991:
  7450   00062C  EF22  F003         	goto	l4152
  7451   000630                     u2990:
  7452   000630                     
  7453                           ; BSR set to: 0
  7454                           ;black_box.c: 331:         {;black_box.c: 332:            clcd_write(0x01, 0);
  7455   000630  0E00               	movlw	0
  7456   000632  6E32               	movwf	clcd_write@control_bit^0,c
  7457   000634  0E01               	movlw	1
  7458   000636  EC35  F013         	call	_clcd_write
  7459   00063A                     
  7460                           ;black_box.c: 333:            cs_f = 1;
  7461   00063A  0E00               	movlw	0
  7462   00063C  0100               	movlb	0	; () banked
  7463   00063E  6FCB               	movwf	(change_password@cs_f+1)& (0+255),b
  7464   000640  0E01               	movlw	1
  7465   000642  6FCA               	movwf	change_password@cs_f& (0+255),b
  7466   000644                     l4152:
  7467                           
  7468                           ; BSR set to: 0
  7469                           ;black_box.c: 335:         clcd_print("confirm password",(0x80 + (0)));
  7470   000644  0E0B               	movlw	low STR_37
  7471   000646  6E34               	movwf	clcd_print@data^0,c
  7472   000648  0E2F               	movlw	high STR_37
  7473   00064A  6E35               	movwf	(clcd_print@data+1)^0,c
  7474   00064C  0E80               	movlw	128
  7475   00064E  6E36               	movwf	clcd_print@addr^0,c
  7476   000650  EC56  F011         	call	_clcd_print	;wreg free
  7477   000654                     l4154:
  7478                           
  7479                           ;black_box.c: 339:      if (key == (char*)11 || key == (char*)12)
  7480   000654  0E0B               	movlw	11
  7481   000656  1828               	xorwf	_key^0,w,c
  7482   000658  1029               	iorwf	(_key+1)^0,w,c
  7483   00065A  B4D8               	btfsc	status,2,c
  7484   00065C  EF32  F003         	goto	u3001
  7485   000660  EF34  F003         	goto	u3000
  7486   000664                     u3001:
  7487   000664  EF3E  F003         	goto	l4158
  7488   000668                     u3000:
  7489   000668  0E0C               	movlw	12
  7490   00066A  1828               	xorwf	_key^0,w,c
  7491   00066C  1029               	iorwf	(_key+1)^0,w,c
  7492   00066E  A4D8               	btfss	status,2,c
  7493   000670  EF3C  F003         	goto	u3011
  7494   000674  EF3E  F003         	goto	u3010
  7495   000678                     u3011:
  7496   000678  EFAB  F003         	goto	l4182
  7497   00067C                     u3010:
  7498   00067C                     l4158:
  7499                           
  7500                           ;black_box.c: 340:     {;black_box.c: 341:         if(key == (char*)11 && ++delay1 >= 50
      +                          0 )
  7501   00067C  0E0B               	movlw	11
  7502   00067E  1828               	xorwf	_key^0,w,c
  7503   000680  1029               	iorwf	(_key+1)^0,w,c
  7504   000682  A4D8               	btfss	status,2,c
  7505   000684  EF46  F003         	goto	u3021
  7506   000688  EF48  F003         	goto	u3020
  7507   00068C                     u3021:
  7508   00068C  EF68  F003         	goto	l4164
  7509   000690                     u3020:
  7510   000690  0E01               	movlw	1
  7511   000692  0100               	movlb	0	; () banked
  7512   000694  27C0               	addwf	change_password@delay1& (0+255),f,b
  7513   000696  0E00               	movlw	0
  7514   000698  23C1               	addwfc	(change_password@delay1+1)& (0+255),f,b
  7515   00069A  23C2               	addwfc	(change_password@delay1+2)& (0+255),f,b
  7516   00069C  23C3               	addwfc	(change_password@delay1+3)& (0+255),f,b
  7517   00069E  51C3               	movf	(change_password@delay1+3)& (0+255),w,b
  7518   0006A0  11C2               	iorwf	(change_password@delay1+2)& (0+255),w,b
  7519   0006A2  E10B               	bnz	u3030
  7520   0006A4  0EF4               	movlw	244
  7521   0006A6  5DC0               	subwf	change_password@delay1& (0+255),w,b
  7522   0006A8  0E01               	movlw	1
  7523   0006AA  59C1               	subwfb	(change_password@delay1+1)& (0+255),w,b
  7524   0006AC  A0D8               	btfss	status,0,c
  7525   0006AE  EF5B  F003         	goto	u3031
  7526   0006B2  EF5D  F003         	goto	u3030
  7527   0006B6                     u3031:
  7528   0006B6  EF68  F003         	goto	l4164
  7529   0006BA                     u3030:
  7530   0006BA                     l4162:
  7531                           
  7532                           ;black_box.c: 342:         {;black_box.c: 343:             delay1=0;
  7533   0006BA  0E00               	movlw	0
  7534   0006BC  0100               	movlb	0	; () banked
  7535   0006BE  6FC0               	movwf	change_password@delay1& (0+255),b
  7536   0006C0  0E00               	movlw	0
  7537   0006C2  6FC1               	movwf	(change_password@delay1+1)& (0+255),b
  7538   0006C4  0E00               	movlw	0
  7539   0006C6  6FC2               	movwf	(change_password@delay1+2)& (0+255),b
  7540   0006C8  0E00               	movlw	0
  7541   0006CA  6FC3               	movwf	(change_password@delay1+3)& (0+255),b
  7542                           
  7543                           ;black_box.c: 344:         }
  7544   0006CC  EF79  F004         	goto	l4236
  7545   0006D0                     l4164:
  7546   0006D0  0E0C               	movlw	12
  7547   0006D2  1828               	xorwf	_key^0,w,c
  7548   0006D4  1029               	iorwf	(_key+1)^0,w,c
  7549   0006D6  A4D8               	btfss	status,2,c
  7550   0006D8  EF70  F003         	goto	u3041
  7551   0006DC  EF72  F003         	goto	u3040
  7552   0006E0                     u3041:
  7553   0006E0  EF79  F004         	goto	l4236
  7554   0006E4                     u3040:
  7555   0006E4  0E01               	movlw	1
  7556   0006E6  0100               	movlb	0	; () banked
  7557   0006E8  27BC               	addwf	change_password@delay2& (0+255),f,b
  7558   0006EA  0E00               	movlw	0
  7559   0006EC  23BD               	addwfc	(change_password@delay2+1)& (0+255),f,b
  7560   0006EE  23BE               	addwfc	(change_password@delay2+2)& (0+255),f,b
  7561   0006F0  23BF               	addwfc	(change_password@delay2+3)& (0+255),f,b
  7562   0006F2  51BF               	movf	(change_password@delay2+3)& (0+255),w,b
  7563   0006F4  11BE               	iorwf	(change_password@delay2+2)& (0+255),w,b
  7564   0006F6  E10B               	bnz	u3050
  7565   0006F8  0EF4               	movlw	244
  7566   0006FA  5DBC               	subwf	change_password@delay2& (0+255),w,b
  7567   0006FC  0E01               	movlw	1
  7568   0006FE  59BD               	subwfb	(change_password@delay2+1)& (0+255),w,b
  7569   000700  A0D8               	btfss	status,0,c
  7570   000702  EF85  F003         	goto	u3051
  7571   000706  EF87  F003         	goto	u3050
  7572   00070A                     u3051:
  7573   00070A  EF79  F004         	goto	l4236
  7574   00070E                     u3050:
  7575   00070E                     
  7576                           ; BSR set to: 0
  7577                           ;black_box.c: 346:         {;black_box.c: 347:             clcd_write(0x01, 0);
  7578   00070E  0E00               	movlw	0
  7579   000710  6E32               	movwf	clcd_write@control_bit^0,c
  7580   000712  0E01               	movlw	1
  7581   000714  EC35  F013         	call	_clcd_write
  7582   000718                     
  7583                           ;black_box.c: 348:             delay1=0;delay2=0;pass_count=0;pass_count2=0;
  7584   000718  0E00               	movlw	0
  7585   00071A  0100               	movlb	0	; () banked
  7586   00071C  6FC0               	movwf	change_password@delay1& (0+255),b
  7587   00071E  0E00               	movlw	0
  7588   000720  6FC1               	movwf	(change_password@delay1+1)& (0+255),b
  7589   000722  0E00               	movlw	0
  7590   000724  6FC2               	movwf	(change_password@delay1+2)& (0+255),b
  7591   000726  0E00               	movlw	0
  7592   000728  6FC3               	movwf	(change_password@delay1+3)& (0+255),b
  7593   00072A                     
  7594                           ; BSR set to: 0
  7595   00072A  0E00               	movlw	0
  7596   00072C  6FBC               	movwf	change_password@delay2& (0+255),b
  7597   00072E  0E00               	movlw	0
  7598   000730  6FBD               	movwf	(change_password@delay2+1)& (0+255),b
  7599   000732  0E00               	movlw	0
  7600   000734  6FBE               	movwf	(change_password@delay2+2)& (0+255),b
  7601   000736  0E00               	movlw	0
  7602   000738  6FBF               	movwf	(change_password@delay2+3)& (0+255),b
  7603   00073A                     
  7604                           ; BSR set to: 0
  7605   00073A  0E00               	movlw	0
  7606   00073C  6E17               	movwf	(change_password@pass_count+1)^0,c
  7607   00073E  0E00               	movlw	0
  7608   000740  6E16               	movwf	change_password@pass_count^0,c
  7609   000742                     
  7610                           ; BSR set to: 0
  7611   000742  0E00               	movlw	0
  7612   000744  6E15               	movwf	(change_password@pass_count2+1)^0,c
  7613   000746  0E00               	movlw	0
  7614   000748  6E14               	movwf	change_password@pass_count2^0,c
  7615   00074A                     l4178:
  7616                           
  7617                           ; BSR set to: 0
  7618                           ;black_box.c: 349:             main_flag=2;
  7619   00074A  0E00               	movlw	0
  7620   00074C  6E27               	movwf	(_main_flag+1)^0,c
  7621   00074E  0E02               	movlw	2
  7622   000750  6E26               	movwf	_main_flag^0,c
  7623   000752  EF1A  F005         	goto	l287
  7624   000756                     l4182:
  7625   000756  0100               	movlb	0	; () banked
  7626   000758  51C0               	movf	change_password@delay1& (0+255),w,b
  7627   00075A  11C1               	iorwf	(change_password@delay1+1)& (0+255),w,b
  7628   00075C  11C2               	iorwf	(change_password@delay1+2)& (0+255),w,b
  7629   00075E  11C3               	iorwf	(change_password@delay1+3)& (0+255),w,b
  7630   000760  B4D8               	btfsc	status,2,c
  7631   000762  EFB5  F003         	goto	u3061
  7632   000766  EFB7  F003         	goto	u3060
  7633   00076A                     u3061:
  7634   00076A  EF06  F004         	goto	l4208
  7635   00076E                     u3060:
  7636   00076E                     
  7637                           ; BSR set to: 0
  7638   00076E  51C3               	movf	(change_password@delay1+3)& (0+255),w,b
  7639   000770  11C2               	iorwf	(change_password@delay1+2)& (0+255),w,b
  7640   000772  E109               	bnz	u3071
  7641   000774  0EF4               	movlw	244
  7642   000776  5DC0               	subwf	change_password@delay1& (0+255),w,b
  7643   000778  0E01               	movlw	1
  7644   00077A  59C1               	subwfb	(change_password@delay1+1)& (0+255),w,b
  7645   00077C  B0D8               	btfsc	status,0,c
  7646   00077E  EFC3  F003         	goto	u3071
  7647   000782  EFC5  F003         	goto	u3070
  7648   000786                     u3071:
  7649   000786  EF06  F004         	goto	l4208
  7650   00078A                     u3070:
  7651   00078A                     
  7652                           ; BSR set to: 0
  7653                           ;black_box.c: 354:      {;black_box.c: 355:          if(pass_count < 4 )
  7654   00078A  5017               	movf	(change_password@pass_count+1)^0,w,c
  7655   00078C  E107               	bnz	u3081
  7656   00078E  0E04               	movlw	4
  7657   000790  5C16               	subwf	change_password@pass_count^0,w,c
  7658   000792  B0D8               	btfsc	status,0,c
  7659   000794  EFCE  F003         	goto	u3081
  7660   000798  EFD0  F003         	goto	u3080
  7661   00079C                     u3081:
  7662   00079C  EFE0  F003         	goto	l4196
  7663   0007A0                     u3080:
  7664   0007A0                     
  7665                           ; BSR set to: 0
  7666                           ;black_box.c: 356:          {;black_box.c: 357:             read_pass[pass_count]=((char
      +                          )0+48);
  7667   0007A0  5016               	movf	change_password@pass_count^0,w,c
  7668   0007A2  0FD3               	addlw	low change_password@read_pass
  7669   0007A4  6ED9               	movwf	fsr2l,c
  7670   0007A6  6ADA               	clrf	fsr2h,c
  7671   0007A8  0E30               	movlw	48
  7672   0007AA  6EDF               	movwf	indf2,c
  7673   0007AC                     
  7674                           ; BSR set to: 0
  7675                           ;black_box.c: 358:             clcd_putch('*',(0xC0 + (pass_count)));
  7676   0007AC  5016               	movf	change_password@pass_count^0,w,c
  7677   0007AE  0FC0               	addlw	192
  7678   0007B0  6E40               	movwf	clcd_putch@addr^0,c
  7679   0007B2  0E2A               	movlw	42
  7680   0007B4  ECCF  F013         	call	_clcd_putch
  7681   0007B8                     
  7682                           ;black_box.c: 359:             pass_count++;
  7683   0007B8  4A16               	infsnz	change_password@pass_count^0,f,c
  7684   0007BA  2A17               	incf	(change_password@pass_count+1)^0,f,c
  7685   0007BC  EF5D  F003         	goto	l4162
  7686   0007C0                     l4196:
  7687                           
  7688                           ; BSR set to: 0
  7689   0007C0  5017               	movf	(change_password@pass_count+1)^0,w,c
  7690   0007C2  E109               	bnz	u3090
  7691   0007C4  0E04               	movlw	4
  7692   0007C6  5C16               	subwf	change_password@pass_count^0,w,c
  7693   0007C8  A0D8               	btfss	status,0,c
  7694   0007CA  EFE9  F003         	goto	u3091
  7695   0007CE  EFEB  F003         	goto	u3090
  7696   0007D2                     u3091:
  7697   0007D2  EF79  F004         	goto	l4236
  7698   0007D6                     u3090:
  7699   0007D6                     
  7700                           ; BSR set to: 0
  7701   0007D6  5015               	movf	(change_password@pass_count2+1)^0,w,c
  7702   0007D8  E107               	bnz	u3101
  7703   0007DA  0E04               	movlw	4
  7704   0007DC  5C14               	subwf	change_password@pass_count2^0,w,c
  7705   0007DE  B0D8               	btfsc	status,0,c
  7706   0007E0  EFF4  F003         	goto	u3101
  7707   0007E4  EFF6  F003         	goto	u3100
  7708   0007E8                     u3101:
  7709   0007E8  EF79  F004         	goto	l4236
  7710   0007EC                     u3100:
  7711   0007EC                     
  7712                           ; BSR set to: 0
  7713                           ;black_box.c: 363:          {;black_box.c: 364:             confirm_pass[pass_count2]=((
      +                          char)0+48);
  7714   0007EC  5014               	movf	change_password@pass_count2^0,w,c
  7715   0007EE  0FCE               	addlw	low change_password@confirm_pass
  7716   0007F0  6ED9               	movwf	fsr2l,c
  7717   0007F2  6ADA               	clrf	fsr2h,c
  7718   0007F4  0E30               	movlw	48
  7719   0007F6  6EDF               	movwf	indf2,c
  7720   0007F8                     
  7721                           ; BSR set to: 0
  7722                           ;black_box.c: 365:             clcd_putch('*',(0xC0 + (pass_count2)));
  7723   0007F8  5014               	movf	change_password@pass_count2^0,w,c
  7724   0007FA  0FC0               	addlw	192
  7725   0007FC  6E40               	movwf	clcd_putch@addr^0,c
  7726   0007FE  0E2A               	movlw	42
  7727   000800  ECCF  F013         	call	_clcd_putch
  7728   000804                     
  7729                           ;black_box.c: 366:             pass_count2++;
  7730   000804  4A14               	infsnz	change_password@pass_count2^0,f,c
  7731   000806  2A15               	incf	(change_password@pass_count2+1)^0,f,c
  7732   000808  EF5D  F003         	goto	l4162
  7733   00080C                     l4208:
  7734                           
  7735                           ; BSR set to: 0
  7736   00080C  51BC               	movf	change_password@delay2& (0+255),w,b
  7737   00080E  11BD               	iorwf	(change_password@delay2+1)& (0+255),w,b
  7738   000810  11BE               	iorwf	(change_password@delay2+2)& (0+255),w,b
  7739   000812  11BF               	iorwf	(change_password@delay2+3)& (0+255),w,b
  7740   000814  B4D8               	btfsc	status,2,c
  7741   000816  EF0F  F004         	goto	u3111
  7742   00081A  EF11  F004         	goto	u3110
  7743   00081E                     u3111:
  7744   00081E  EF69  F004         	goto	l4234
  7745   000822                     u3110:
  7746   000822                     
  7747                           ; BSR set to: 0
  7748   000822  51BF               	movf	(change_password@delay2+3)& (0+255),w,b
  7749   000824  11BE               	iorwf	(change_password@delay2+2)& (0+255),w,b
  7750   000826  E109               	bnz	u3121
  7751   000828  0EF4               	movlw	244
  7752   00082A  5DBC               	subwf	change_password@delay2& (0+255),w,b
  7753   00082C  0E01               	movlw	1
  7754   00082E  59BD               	subwfb	(change_password@delay2+1)& (0+255),w,b
  7755   000830  B0D8               	btfsc	status,0,c
  7756   000832  EF1D  F004         	goto	u3121
  7757   000836  EF1F  F004         	goto	u3120
  7758   00083A                     u3121:
  7759   00083A  EF69  F004         	goto	l4234
  7760   00083E                     u3120:
  7761   00083E                     
  7762                           ; BSR set to: 0
  7763                           ;black_box.c: 371:      {;black_box.c: 372:           if(pass_count < 4 )
  7764   00083E  5017               	movf	(change_password@pass_count+1)^0,w,c
  7765   000840  E107               	bnz	u3131
  7766   000842  0E04               	movlw	4
  7767   000844  5C16               	subwf	change_password@pass_count^0,w,c
  7768   000846  B0D8               	btfsc	status,0,c
  7769   000848  EF28  F004         	goto	u3131
  7770   00084C  EF2A  F004         	goto	u3130
  7771   000850                     u3131:
  7772   000850  EF43  F004         	goto	l4222
  7773   000854                     u3130:
  7774   000854                     
  7775                           ; BSR set to: 0
  7776                           ;black_box.c: 373:          {;black_box.c: 374:             read_pass[pass_count]=((char
      +                          )1+48);
  7777   000854  5016               	movf	change_password@pass_count^0,w,c
  7778   000856  0FD3               	addlw	low change_password@read_pass
  7779   000858  6ED9               	movwf	fsr2l,c
  7780   00085A  6ADA               	clrf	fsr2h,c
  7781   00085C  0E31               	movlw	49
  7782   00085E  6EDF               	movwf	indf2,c
  7783   000860                     
  7784                           ; BSR set to: 0
  7785                           ;black_box.c: 375:             clcd_putch('*',(0xC0 + (pass_count)));
  7786   000860  5016               	movf	change_password@pass_count^0,w,c
  7787   000862  0FC0               	addlw	192
  7788   000864  6E40               	movwf	clcd_putch@addr^0,c
  7789   000866  0E2A               	movlw	42
  7790   000868  ECCF  F013         	call	_clcd_putch
  7791   00086C                     
  7792                           ;black_box.c: 376:             pass_count++;
  7793   00086C  4A16               	infsnz	change_password@pass_count^0,f,c
  7794   00086E  2A17               	incf	(change_password@pass_count+1)^0,f,c
  7795   000870                     l4220:
  7796                           
  7797                           ;black_box.c: 377:             delay2=0;
  7798   000870  0E00               	movlw	0
  7799   000872  0100               	movlb	0	; () banked
  7800   000874  6FBC               	movwf	change_password@delay2& (0+255),b
  7801   000876  0E00               	movlw	0
  7802   000878  6FBD               	movwf	(change_password@delay2+1)& (0+255),b
  7803   00087A  0E00               	movlw	0
  7804   00087C  6FBE               	movwf	(change_password@delay2+2)& (0+255),b
  7805   00087E  0E00               	movlw	0
  7806   000880  6FBF               	movwf	(change_password@delay2+3)& (0+255),b
  7807                           
  7808                           ;black_box.c: 378:          }
  7809   000882  EF79  F004         	goto	l4236
  7810   000886                     l4222:
  7811                           
  7812                           ; BSR set to: 0
  7813   000886  5017               	movf	(change_password@pass_count+1)^0,w,c
  7814   000888  E109               	bnz	u3140
  7815   00088A  0E04               	movlw	4
  7816   00088C  5C16               	subwf	change_password@pass_count^0,w,c
  7817   00088E  A0D8               	btfss	status,0,c
  7818   000890  EF4C  F004         	goto	u3141
  7819   000894  EF4E  F004         	goto	u3140
  7820   000898                     u3141:
  7821   000898  EF79  F004         	goto	l4236
  7822   00089C                     u3140:
  7823   00089C                     
  7824                           ; BSR set to: 0
  7825   00089C  5015               	movf	(change_password@pass_count2+1)^0,w,c
  7826   00089E  E107               	bnz	u3151
  7827   0008A0  0E04               	movlw	4
  7828   0008A2  5C14               	subwf	change_password@pass_count2^0,w,c
  7829   0008A4  B0D8               	btfsc	status,0,c
  7830   0008A6  EF57  F004         	goto	u3151
  7831   0008AA  EF59  F004         	goto	u3150
  7832   0008AE                     u3151:
  7833   0008AE  EF79  F004         	goto	l4236
  7834   0008B2                     u3150:
  7835   0008B2                     
  7836                           ; BSR set to: 0
  7837                           ;black_box.c: 380:          {;black_box.c: 381:             confirm_pass[pass_count2]=((
      +                          char)1+48);
  7838   0008B2  5014               	movf	change_password@pass_count2^0,w,c
  7839   0008B4  0FCE               	addlw	low change_password@confirm_pass
  7840   0008B6  6ED9               	movwf	fsr2l,c
  7841   0008B8  6ADA               	clrf	fsr2h,c
  7842   0008BA  0E31               	movlw	49
  7843   0008BC  6EDF               	movwf	indf2,c
  7844   0008BE                     
  7845                           ; BSR set to: 0
  7846                           ;black_box.c: 382:             clcd_putch('*',(0xC0 + (pass_count2)));
  7847   0008BE  5014               	movf	change_password@pass_count2^0,w,c
  7848   0008C0  0FC0               	addlw	192
  7849   0008C2  6E40               	movwf	clcd_putch@addr^0,c
  7850   0008C4  0E2A               	movlw	42
  7851   0008C6  ECCF  F013         	call	_clcd_putch
  7852   0008CA                     
  7853                           ;black_box.c: 383:             pass_count2++;
  7854   0008CA  4A14               	infsnz	change_password@pass_count2^0,f,c
  7855   0008CC  2A15               	incf	(change_password@pass_count2+1)^0,f,c
  7856   0008CE  EF38  F004         	goto	l4220
  7857   0008D2                     l4234:
  7858                           
  7859                           ; BSR set to: 0
  7860                           ;black_box.c: 388:      {;black_box.c: 389:          delay1=0;delay2=0;
  7861   0008D2  0E00               	movlw	0
  7862   0008D4  6FC0               	movwf	change_password@delay1& (0+255),b
  7863   0008D6  0E00               	movlw	0
  7864   0008D8  6FC1               	movwf	(change_password@delay1+1)& (0+255),b
  7865   0008DA  0E00               	movlw	0
  7866   0008DC  6FC2               	movwf	(change_password@delay1+2)& (0+255),b
  7867   0008DE  0E00               	movlw	0
  7868   0008E0  6FC3               	movwf	(change_password@delay1+3)& (0+255),b
  7869   0008E2  0E00               	movlw	0
  7870   0008E4  6FBC               	movwf	change_password@delay2& (0+255),b
  7871   0008E6  0E00               	movlw	0
  7872   0008E8  6FBD               	movwf	(change_password@delay2+1)& (0+255),b
  7873   0008EA  0E00               	movlw	0
  7874   0008EC  6FBE               	movwf	(change_password@delay2+2)& (0+255),b
  7875   0008EE  0E00               	movlw	0
  7876   0008F0  6FBF               	movwf	(change_password@delay2+3)& (0+255),b
  7877   0008F2                     l4236:
  7878                           
  7879                           ;black_box.c: 392:     if (pass_count > 3 && pass_count2 > 3)
  7880   0008F2  5017               	movf	(change_password@pass_count+1)^0,w,c
  7881   0008F4  E109               	bnz	u3160
  7882   0008F6  0E04               	movlw	4
  7883   0008F8  5C16               	subwf	change_password@pass_count^0,w,c
  7884   0008FA  A0D8               	btfss	status,0,c
  7885   0008FC  EF82  F004         	goto	u3161
  7886   000900  EF84  F004         	goto	u3160
  7887   000904                     u3161:
  7888   000904  EF1A  F005         	goto	l287
  7889   000908                     u3160:
  7890   000908  5015               	movf	(change_password@pass_count2+1)^0,w,c
  7891   00090A  E109               	bnz	u3170
  7892   00090C  0E04               	movlw	4
  7893   00090E  5C14               	subwf	change_password@pass_count2^0,w,c
  7894   000910  A0D8               	btfss	status,0,c
  7895   000912  EF8D  F004         	goto	u3171
  7896   000916  EF8F  F004         	goto	u3170
  7897   00091A                     u3171:
  7898   00091A  EF1A  F005         	goto	l287
  7899   00091E                     u3170:
  7900   00091E                     
  7901                           ;black_box.c: 393:     {;black_box.c: 394:         read_pass[4]='\0';
  7902   00091E  0E00               	movlw	0
  7903   000920  0100               	movlb	0	; () banked
  7904   000922  6FD7               	movwf	(change_password@read_pass+4)& (0+255),b
  7905                           
  7906                           ;black_box.c: 395:         confirm_pass[4]='\0';
  7907   000924  0E00               	movlw	0
  7908   000926  6FD2               	movwf	(change_password@confirm_pass+4)& (0+255),b
  7909   000928                     
  7910                           ; BSR set to: 0
  7911                           ;black_box.c: 396:         if(strcmp(read_pass,confirm_pass)== 0)
  7912   000928  0ED3               	movlw	low change_password@read_pass
  7913   00092A  6E32               	movwf	strcmp@l^0,c
  7914   00092C  0ECE               	movlw	low change_password@confirm_pass
  7915   00092E  6E33               	movwf	strcmp@r^0,c
  7916   000930  ECED  F011         	call	_strcmp	;wreg free
  7917   000934  5032               	movf	?_strcmp^0,w,c
  7918   000936  1033               	iorwf	(?_strcmp+1)^0,w,c
  7919   000938  A4D8               	btfss	status,2,c
  7920   00093A  EFA1  F004         	goto	u3181
  7921   00093E  EFA3  F004         	goto	u3180
  7922   000942                     u3181:
  7923   000942  EFFA  F004         	goto	l4278
  7924   000946                     u3180:
  7925   000946                     
  7926                           ;black_box.c: 397:         {;black_box.c: 398:             clcd_write(0x01, 0);
  7927   000946  0E00               	movlw	0
  7928   000948  6E32               	movwf	clcd_write@control_bit^0,c
  7929   00094A  0E01               	movlw	1
  7930   00094C  EC35  F013         	call	_clcd_write
  7931   000950                     
  7932                           ;black_box.c: 399:             strcpy(orig_pass,read_pass);
  7933   000950  0E9B               	movlw	low _orig_pass
  7934   000952  6E32               	movwf	strcpy@dest^0,c
  7935   000954  0ED3               	movlw	low change_password@read_pass
  7936   000956  6E33               	movwf	strcpy@src^0,c
  7937   000958  EC7C  F013         	call	_strcpy	;wreg free
  7938   00095C                     
  7939                           ;black_box.c: 400:             write_external_eeprom(101, orig_pass[0]);
  7940   00095C  C09B  F033         	movff	_orig_pass,write_external_eeprom@data
  7941   000960  0E65               	movlw	101
  7942   000962  EC15  F013         	call	_write_external_eeprom
  7943   000966                     
  7944                           ;black_box.c: 401:             write_external_eeprom(102, orig_pass[1]);
  7945   000966  C09C  F033         	movff	_orig_pass+1,write_external_eeprom@data
  7946   00096A  0E66               	movlw	102
  7947   00096C  EC15  F013         	call	_write_external_eeprom
  7948   000970                     
  7949                           ;black_box.c: 402:             write_external_eeprom(103, orig_pass[2]);
  7950   000970  C09D  F033         	movff	_orig_pass+2,write_external_eeprom@data
  7951   000974  0E67               	movlw	103
  7952   000976  EC15  F013         	call	_write_external_eeprom
  7953   00097A                     
  7954                           ;black_box.c: 403:             write_external_eeprom(104, orig_pass[3]);
  7955   00097A  C09E  F033         	movff	_orig_pass+3,write_external_eeprom@data
  7956   00097E  0E68               	movlw	104
  7957   000980  EC15  F013         	call	_write_external_eeprom
  7958   000984                     
  7959                           ;black_box.c: 404:             clcd_print("password_updated",(0x80 + (0)));
  7960   000984  0EFA               	movlw	low STR_38
  7961   000986  6E34               	movwf	clcd_print@data^0,c
  7962   000988  0E2E               	movlw	high STR_38
  7963   00098A  6E35               	movwf	(clcd_print@data+1)^0,c
  7964   00098C  0E80               	movlw	128
  7965   00098E  6E36               	movwf	clcd_print@addr^0,c
  7966   000990  EC56  F011         	call	_clcd_print	;wreg free
  7967   000994                     
  7968                           ;black_box.c: 405:             _delay((unsigned long)((1500)*(20000000/4000.0)));
  7969   000994  0E27               	movlw	39
  7970   000996  6E43               	movwf	(??_change_password+1)^0,c
  7971   000998  0E0D               	movlw	13
  7972   00099A  6E42               	movwf	??_change_password^0,c
  7973   00099C  0E26               	movlw	38
  7974   00099E                     u3487:
  7975   00099E  2EE8               	decfsz	wreg,f,c
  7976   0009A0  D7FE               	bra	u3487
  7977   0009A2  2E42               	decfsz	??_change_password^0,f,c
  7978   0009A4  D7FC               	bra	u3487
  7979   0009A6  2E43               	decfsz	(??_change_password+1)^0,f,c
  7980   0009A8  D7FA               	bra	u3487
  7981   0009AA  D000               	nop2	
  7982   0009AC                     
  7983                           ;black_box.c: 406:             clcd_write(0x01, 0);
  7984   0009AC  0E00               	movlw	0
  7985   0009AE  6E32               	movwf	clcd_write@control_bit^0,c
  7986   0009B0  0E01               	movlw	1
  7987   0009B2  EC35  F013         	call	_clcd_write
  7988   0009B6                     l4262:
  7989                           
  7990                           ;black_box.c: 407:             delay1=0;delay2=0;pass_count=0;pass_count2=0;cs_f=0;
  7991   0009B6  0E00               	movlw	0
  7992   0009B8  0100               	movlb	0	; () banked
  7993   0009BA  6FC0               	movwf	change_password@delay1& (0+255),b
  7994   0009BC  0E00               	movlw	0
  7995   0009BE  6FC1               	movwf	(change_password@delay1+1)& (0+255),b
  7996   0009C0  0E00               	movlw	0
  7997   0009C2  6FC2               	movwf	(change_password@delay1+2)& (0+255),b
  7998   0009C4  0E00               	movlw	0
  7999   0009C6  6FC3               	movwf	(change_password@delay1+3)& (0+255),b
  8000   0009C8                     
  8001                           ; BSR set to: 0
  8002   0009C8  0E00               	movlw	0
  8003   0009CA  6FBC               	movwf	change_password@delay2& (0+255),b
  8004   0009CC  0E00               	movlw	0
  8005   0009CE  6FBD               	movwf	(change_password@delay2+1)& (0+255),b
  8006   0009D0  0E00               	movlw	0
  8007   0009D2  6FBE               	movwf	(change_password@delay2+2)& (0+255),b
  8008   0009D4  0E00               	movlw	0
  8009   0009D6  6FBF               	movwf	(change_password@delay2+3)& (0+255),b
  8010   0009D8                     
  8011                           ; BSR set to: 0
  8012   0009D8  0E00               	movlw	0
  8013   0009DA  6E17               	movwf	(change_password@pass_count+1)^0,c
  8014   0009DC  0E00               	movlw	0
  8015   0009DE  6E16               	movwf	change_password@pass_count^0,c
  8016   0009E0                     
  8017                           ; BSR set to: 0
  8018   0009E0  0E00               	movlw	0
  8019   0009E2  6E15               	movwf	(change_password@pass_count2+1)^0,c
  8020   0009E4  0E00               	movlw	0
  8021   0009E6  6E14               	movwf	change_password@pass_count2^0,c
  8022   0009E8                     
  8023                           ; BSR set to: 0
  8024   0009E8  0E00               	movlw	0
  8025   0009EA  6FCB               	movwf	(change_password@cs_f+1)& (0+255),b
  8026   0009EC  0E00               	movlw	0
  8027   0009EE  6FCA               	movwf	change_password@cs_f& (0+255),b
  8028   0009F0  EFA5  F003         	goto	l4178
  8029   0009F4                     l4278:
  8030                           
  8031                           ;black_box.c: 412:         {;black_box.c: 413:             clcd_write(0x01, 0);
  8032   0009F4  0E00               	movlw	0
  8033   0009F6  6E32               	movwf	clcd_write@control_bit^0,c
  8034   0009F8  0E01               	movlw	1
  8035   0009FA  EC35  F013         	call	_clcd_write
  8036   0009FE                     
  8037                           ;black_box.c: 414:             clcd_print("pass_mismatch",(0x80 + (0)));
  8038   0009FE  0E4A               	movlw	low STR_39
  8039   000A00  6E34               	movwf	clcd_print@data^0,c
  8040   000A02  0E2F               	movlw	high STR_39
  8041   000A04  6E35               	movwf	(clcd_print@data+1)^0,c
  8042   000A06  0E80               	movlw	128
  8043   000A08  6E36               	movwf	clcd_print@addr^0,c
  8044   000A0A  EC56  F011         	call	_clcd_print	;wreg free
  8045   000A0E                     
  8046                           ;black_box.c: 415:             _delay((unsigned long)((1500)*(20000000/4000.0)));
  8047   000A0E  0E27               	movlw	39
  8048   000A10  6E43               	movwf	(??_change_password+1)^0,c
  8049   000A12  0E0D               	movlw	13
  8050   000A14  6E42               	movwf	??_change_password^0,c
  8051   000A16  0E26               	movlw	38
  8052   000A18                     u3497:
  8053   000A18  2EE8               	decfsz	wreg,f,c
  8054   000A1A  D7FE               	bra	u3497
  8055   000A1C  2E42               	decfsz	??_change_password^0,f,c
  8056   000A1E  D7FC               	bra	u3497
  8057   000A20  2E43               	decfsz	(??_change_password+1)^0,f,c
  8058   000A22  D7FA               	bra	u3497
  8059   000A24  D000               	nop2	
  8060   000A26                     
  8061                           ;black_box.c: 416:             clcd_write(0x01, 0);
  8062   000A26  0E00               	movlw	0
  8063   000A28  6E32               	movwf	clcd_write@control_bit^0,c
  8064   000A2A  0E01               	movlw	1
  8065   000A2C  EC35  F013         	call	_clcd_write
  8066   000A30  EFDB  F004         	goto	l4262
  8067   000A34                     l287:
  8068   000A34  0012               	return		;funcret
  8069   000A36                     __end_of_change_password:
  8070                           	callstack 0
  8071                           
  8072 ;; *************** function _write_external_eeprom *****************
  8073 ;; Defined at:
  8074 ;;		line 12 in file "external_EEPROM_P.c"
  8075 ;; Parameters:    Size  Location     Type
  8076 ;;  address         1    wreg     unsigned char 
  8077 ;;  data            1    1[COMRAM] unsigned char 
  8078 ;; Auto vars:     Size  Location     Type
  8079 ;;  address         1    4[COMRAM] unsigned char 
  8080 ;;  i               2    2[COMRAM] int 
  8081 ;; Return value:  Size  Location     Type
  8082 ;;                  1    wreg      void 
  8083 ;; Registers used:
  8084 ;;		wreg, status,2, status,0, cstack
  8085 ;; Tracked objects:
  8086 ;;		On entry : 0/0
  8087 ;;		On exit  : 0/0
  8088 ;;		Unchanged: 0/0
  8089 ;; Data sizes:     COMRAM   BANK0   BANK1   BANK2   BANK3   BANK4   BANK5
  8090 ;;      Params:         1       0       0       0       0       0       0
  8091 ;;      Locals:         3       0       0       0       0       0       0
  8092 ;;      Temps:          0       0       0       0       0       0       0
  8093 ;;      Totals:         4       0       0       0       0       0       0
  8094 ;;Total ram usage:        4 bytes
  8095 ;; Hardware stack levels used: 1
  8096 ;; Hardware stack levels required when called: 3
  8097 ;; This function calls:
  8098 ;;		_i2c_start
  8099 ;;		_i2c_stop
  8100 ;;		_i2c_write
  8101 ;; This function is called by:
  8102 ;;		_init_config
  8103 ;;		_store_in_eeprom
  8104 ;;		_change_password
  8105 ;; This function uses a non-reentrant model
  8106 ;;
  8107                           
  8108                           	psect	text38
  8109   00262A                     __ptext38:
  8110                           	callstack 0
  8111   00262A                     _write_external_eeprom:
  8112                           	callstack 26
  8113                           
  8114                           ;incstack = 0
  8115                           ;write_external_eeprom@address stored from wreg
  8116   00262A  6E36               	movwf	write_external_eeprom@address^0,c
  8117   00262C                     
  8118                           ;external_EEPROM_P.c: 12: void write_external_eeprom(unsigned char address, unsigned cha
      +                          r data);external_EEPROM_P.c: 13: {;external_EEPROM_P.c: 14:  i2c_start();
  8119   00262C  EC1F  F014         	call	_i2c_start	;wreg free
  8120   002630                     
  8121                           ;external_EEPROM_P.c: 15:  i2c_write(0xA0);
  8122   002630  0EA0               	movlw	160
  8123   002632  EC09  F014         	call	_i2c_write
  8124   002636                     
  8125                           ;external_EEPROM_P.c: 16:  i2c_write(address);
  8126   002636  5036               	movf	write_external_eeprom@address^0,w,c
  8127   002638  EC09  F014         	call	_i2c_write
  8128   00263C                     
  8129                           ;external_EEPROM_P.c: 17:  i2c_write(data);
  8130   00263C  5033               	movf	write_external_eeprom@data^0,w,c
  8131   00263E  EC09  F014         	call	_i2c_write
  8132   002642                     
  8133                           ;external_EEPROM_P.c: 18:  i2c_stop();
  8134   002642  EC1B  F014         	call	_i2c_stop	;wreg free
  8135   002646                     
  8136                           ;external_EEPROM_P.c: 19:     for(int i = 3000;i--;);
  8137   002646  0E0B               	movlw	11
  8138   002648  6E35               	movwf	(write_external_eeprom@i+1)^0,c
  8139   00264A  0EB8               	movlw	184
  8140   00264C  6E34               	movwf	write_external_eeprom@i^0,c
  8141   00264E                     l3118:
  8142   00264E  0634               	decf	write_external_eeprom@i^0,f,c
  8143   002650  A0D8               	btfss	status,0,c
  8144   002652  0635               	decf	(write_external_eeprom@i+1)^0,f,c
  8145   002654  2834               	incf	write_external_eeprom@i^0,w,c
  8146   002656  E106               	bnz	u1771
  8147   002658  2835               	incf	(write_external_eeprom@i+1)^0,w,c
  8148   00265A  A4D8               	btfss	status,2,c
  8149   00265C  EF32  F013         	goto	u1771
  8150   002660  EF34  F013         	goto	u1770
  8151   002664                     u1771:
  8152   002664  EF27  F013         	goto	l3118
  8153   002668                     u1770:
  8154   002668  0012               	return		;funcret
  8155   00266A                     __end_of_write_external_eeprom:
  8156                           	callstack 0
  8157                           
  8158 ;; *************** function _i2c_write *****************
  8159 ;; Defined at:
  8160 ;;		line 63 in file "i2c_p.c"
  8161 ;; Parameters:    Size  Location     Type
  8162 ;;  data            1    wreg     unsigned char 
  8163 ;; Auto vars:     Size  Location     Type
  8164 ;;  data            1    0[COMRAM] unsigned char 
  8165 ;; Return value:  Size  Location     Type
  8166 ;;                  1    wreg      void 
  8167 ;; Registers used:
  8168 ;;		wreg, cstack
  8169 ;; Tracked objects:
  8170 ;;		On entry : 0/0
  8171 ;;		On exit  : 0/0
  8172 ;;		Unchanged: 0/0
  8173 ;; Data sizes:     COMRAM   BANK0   BANK1   BANK2   BANK3   BANK4   BANK5
  8174 ;;      Params:         0       0       0       0       0       0       0
  8175 ;;      Locals:         1       0       0       0       0       0       0
  8176 ;;      Temps:          0       0       0       0       0       0       0
  8177 ;;      Totals:         1       0       0       0       0       0       0
  8178 ;;Total ram usage:        1 bytes
  8179 ;; Hardware stack levels used: 1
  8180 ;; Hardware stack levels required when called: 2
  8181 ;; This function calls:
  8182 ;;		_i2c_idle
  8183 ;; This function is called by:
  8184 ;;		_write_ds1307
  8185 ;;		_read_ds1307
  8186 ;;		_write_external_eeprom
  8187 ;;		_read_external_eeprom
  8188 ;; This function uses a non-reentrant model
  8189 ;;
  8190                           
  8191                           	psect	text39
  8192   002812                     __ptext39:
  8193                           	callstack 0
  8194   002812                     _i2c_write:
  8195                           	callstack 25
  8196                           
  8197                           ;incstack = 0
  8198                           ;i2c_write@data stored from wreg
  8199   002812  6E32               	movwf	i2c_write@data^0,c
  8200   002814                     
  8201                           ;i2c_p.c: 63: void i2c_write(unsigned char data);i2c_p.c: 64: {;i2c_p.c: 65:  SSPBUF = d
      +                          ata;
  8202   002814  C032  FFC9         	movff	i2c_write@data,4041	;volatile
  8203   002818                     
  8204                           ;i2c_p.c: 66:  i2c_idle();
  8205   002818  ECFA  F013         	call	_i2c_idle	;wreg free
  8206   00281C  0012               	return		;funcret
  8207   00281E                     __end_of_i2c_write:
  8208                           	callstack 0
  8209                           
  8210 ;; *************** function _i2c_stop *****************
  8211 ;; Defined at:
  8212 ;;		line 51 in file "i2c_p.c"
  8213 ;; Parameters:    Size  Location     Type
  8214 ;;		None
  8215 ;; Auto vars:     Size  Location     Type
  8216 ;;		None
  8217 ;; Return value:  Size  Location     Type
  8218 ;;                  1    wreg      void 
  8219 ;; Registers used:
  8220 ;;		cstack
  8221 ;; Tracked objects:
  8222 ;;		On entry : 0/0
  8223 ;;		On exit  : 0/0
  8224 ;;		Unchanged: 0/0
  8225 ;; Data sizes:     COMRAM   BANK0   BANK1   BANK2   BANK3   BANK4   BANK5
  8226 ;;      Params:         0       0       0       0       0       0       0
  8227 ;;      Locals:         0       0       0       0       0       0       0
  8228 ;;      Temps:          0       0       0       0       0       0       0
  8229 ;;      Totals:         0       0       0       0       0       0       0
  8230 ;;Total ram usage:        0 bytes
  8231 ;; Hardware stack levels used: 1
  8232 ;; Hardware stack levels required when called: 2
  8233 ;; This function calls:
  8234 ;;		_i2c_idle
  8235 ;; This function is called by:
  8236 ;;		_write_ds1307
  8237 ;;		_read_ds1307
  8238 ;;		_write_external_eeprom
  8239 ;;		_read_external_eeprom
  8240 ;; This function uses a non-reentrant model
  8241 ;;
  8242                           
  8243                           	psect	text40
  8244   002836                     __ptext40:
  8245                           	callstack 0
  8246   002836                     _i2c_stop:
  8247                           	callstack 25
  8248   002836                     
  8249                           ;i2c_p.c: 53:  PEN = 1;
  8250   002836  84C5               	bsf	4037,2,c	;volatile
  8251   002838                     
  8252                           ;i2c_p.c: 54:  i2c_idle();
  8253   002838  ECFA  F013         	call	_i2c_idle	;wreg free
  8254   00283C  0012               	return		;funcret
  8255   00283E                     __end_of_i2c_stop:
  8256                           	callstack 0
  8257                           
  8258 ;; *************** function _i2c_start *****************
  8259 ;; Defined at:
  8260 ;;		line 45 in file "i2c_p.c"
  8261 ;; Parameters:    Size  Location     Type
  8262 ;;		None
  8263 ;; Auto vars:     Size  Location     Type
  8264 ;;		None
  8265 ;; Return value:  Size  Location     Type
  8266 ;;                  1    wreg      void 
  8267 ;; Registers used:
  8268 ;;		cstack
  8269 ;; Tracked objects:
  8270 ;;		On entry : 0/0
  8271 ;;		On exit  : 0/0
  8272 ;;		Unchanged: 0/0
  8273 ;; Data sizes:     COMRAM   BANK0   BANK1   BANK2   BANK3   BANK4   BANK5
  8274 ;;      Params:         0       0       0       0       0       0       0
  8275 ;;      Locals:         0       0       0       0       0       0       0
  8276 ;;      Temps:          0       0       0       0       0       0       0
  8277 ;;      Totals:         0       0       0       0       0       0       0
  8278 ;;Total ram usage:        0 bytes
  8279 ;; Hardware stack levels used: 1
  8280 ;; Hardware stack levels required when called: 2
  8281 ;; This function calls:
  8282 ;;		_i2c_idle
  8283 ;; This function is called by:
  8284 ;;		_write_ds1307
  8285 ;;		_read_ds1307
  8286 ;;		_write_external_eeprom
  8287 ;;		_read_external_eeprom
  8288 ;; This function uses a non-reentrant model
  8289 ;;
  8290                           
  8291                           	psect	text41
  8292   00283E                     __ptext41:
  8293                           	callstack 0
  8294   00283E                     _i2c_start:
  8295                           	callstack 25
  8296   00283E                     
  8297                           ;i2c_p.c: 47:  SEN = 1;
  8298   00283E  80C5               	bsf	4037,0,c	;volatile
  8299   002840                     
  8300                           ;i2c_p.c: 48:  i2c_idle();
  8301   002840  ECFA  F013         	call	_i2c_idle	;wreg free
  8302   002844  0012               	return		;funcret
  8303   002846                     __end_of_i2c_start:
  8304                           	callstack 0
  8305                           
  8306 ;; *************** function _i2c_idle *****************
  8307 ;; Defined at:
  8308 ;;		line 31 in file "i2c_p.c"
  8309 ;; Parameters:    Size  Location     Type
  8310 ;;		None
  8311 ;; Auto vars:     Size  Location     Type
  8312 ;;		None
  8313 ;; Return value:  Size  Location     Type
  8314 ;;                  1    wreg      void 
  8315 ;; Registers used:
  8316 ;;		None
  8317 ;; Tracked objects:
  8318 ;;		On entry : 0/0
  8319 ;;		On exit  : 0/0
  8320 ;;		Unchanged: 0/0
  8321 ;; Data sizes:     COMRAM   BANK0   BANK1   BANK2   BANK3   BANK4   BANK5
  8322 ;;      Params:         0       0       0       0       0       0       0
  8323 ;;      Locals:         0       0       0       0       0       0       0
  8324 ;;      Temps:          0       0       0       0       0       0       0
  8325 ;;      Totals:         0       0       0       0       0       0       0
  8326 ;;Total ram usage:        0 bytes
  8327 ;; Hardware stack levels used: 1
  8328 ;; Hardware stack levels required when called: 1
  8329 ;; This function calls:
  8330 ;;		Nothing
  8331 ;; This function is called by:
  8332 ;;		_i2c_start
  8333 ;;		_i2c_stop
  8334 ;;		_i2c_rep_start
  8335 ;;		_i2c_write
  8336 ;;		_i2c_rx_mode
  8337 ;; This function uses a non-reentrant model
  8338 ;;
  8339                           
  8340                           	psect	text42
  8341   0027F4                     __ptext42:
  8342                           	callstack 0
  8343   0027F4                     _i2c_idle:
  8344                           	callstack 25
  8345   0027F4                     l776:
  8346   0027F4  A69E               	btfss	3998,3,c	;volatile
  8347   0027F6  EFFF  F013         	goto	u1761
  8348   0027FA  EF01  F014         	goto	u1760
  8349   0027FE                     u1761:
  8350   0027FE  EFFA  F013         	goto	l776
  8351   002802                     u1760:
  8352   002802                     
  8353                           ;i2c_p.c: 34:  SSPIF = 0;
  8354   002802  969E               	bcf	3998,3,c	;volatile
  8355   002804  0012               	return		;funcret
  8356   002806                     __end_of_i2c_idle:
  8357                           	callstack 0
  8358                           
  8359 ;; *************** function _strcpy *****************
  8360 ;; Defined at:
  8361 ;;		line 3 in file "C:\Program Files\Microchip\xc8\v2.46\pic\sources\c99\common\strcpy.c"
  8362 ;; Parameters:    Size  Location     Type
  8363 ;;  dest            1    0[COMRAM] PTR unsigned char 
  8364 ;;		 -> orig_pass(5), 
  8365 ;;  src             1    1[COMRAM] PTR const unsigned char 
  8366 ;;		 -> change_password@read_pass(5), 
  8367 ;; Auto vars:     Size  Location     Type
  8368 ;;  d               1    2[COMRAM] PTR unsigned char 
  8369 ;;		 -> orig_pass(5), 
  8370 ;; Return value:  Size  Location     Type
  8371 ;;                  1    wreg      PTR unsigned char 
  8372 ;; Registers used:
  8373 ;;		wreg, fsr1l, fsr1h, fsr2l, fsr2h, status,2, status,0
  8374 ;; Tracked objects:
  8375 ;;		On entry : 0/0
  8376 ;;		On exit  : 0/0
  8377 ;;		Unchanged: 0/0
  8378 ;; Data sizes:     COMRAM   BANK0   BANK1   BANK2   BANK3   BANK4   BANK5
  8379 ;;      Params:         2       0       0       0       0       0       0
  8380 ;;      Locals:         1       0       0       0       0       0       0
  8381 ;;      Temps:          0       0       0       0       0       0       0
  8382 ;;      Totals:         3       0       0       0       0       0       0
  8383 ;;Total ram usage:        3 bytes
  8384 ;; Hardware stack levels used: 1
  8385 ;; Hardware stack levels required when called: 1
  8386 ;; This function calls:
  8387 ;;		Nothing
  8388 ;; This function is called by:
  8389 ;;		_change_password
  8390 ;; This function uses a non-reentrant model
  8391 ;;
  8392                           
  8393                           	psect	text43
  8394   0026F8                     __ptext43:
  8395                           	callstack 0
  8396   0026F8                     _strcpy:
  8397                           	callstack 28
  8398   0026F8  C032  F034         	movff	strcpy@dest,strcpy@d
  8399   0026FC                     l3408:
  8400   0026FC  2A33               	incf	strcpy@src^0,f,c
  8401   0026FE  0433               	decf	strcpy@src^0,w,c
  8402   002700  6ED9               	movwf	fsr2l,c
  8403   002702  6ADA               	clrf	fsr2h,c
  8404   002704  2A34               	incf	strcpy@d^0,f,c
  8405   002706  0434               	decf	strcpy@d^0,w,c
  8406   002708  6EE1               	movwf	fsr1l,c
  8407   00270A  6AE2               	clrf	fsr1h,c
  8408   00270C  CFDF FFE7          	movff	indf2,indf1
  8409   002710  50E7               	movf	indf1,w,c
  8410   002712  A4D8               	btfss	status,2,c
  8411   002714  EF8E  F013         	goto	u2051
  8412   002718  EF90  F013         	goto	u2050
  8413   00271C                     u2051:
  8414   00271C  EF7E  F013         	goto	l3408
  8415   002720                     u2050:
  8416   002720  0012               	return		;funcret
  8417   002722                     __end_of_strcpy:
  8418                           	callstack 0
  8419                           
  8420 ;; *************** function _strcmp *****************
  8421 ;; Defined at:
  8422 ;;		line 3 in file "C:\Program Files\Microchip\xc8\v2.46\pic\sources\c99\common\strcmp.c"
  8423 ;; Parameters:    Size  Location     Type
  8424 ;;  l               1    0[COMRAM] PTR const unsigned char 
  8425 ;;		 -> change_password@read_pass(5), orig_pass(5), 
  8426 ;;  r               1    1[COMRAM] PTR const unsigned char 
  8427 ;;		 -> change_password@confirm_pass(5), usr_pass(5), 
  8428 ;; Auto vars:     Size  Location     Type
  8429 ;;		None
  8430 ;; Return value:  Size  Location     Type
  8431 ;;                  2    0[COMRAM] int 
  8432 ;; Registers used:
  8433 ;;		wreg, fsr1l, fsr1h, fsr2l, fsr2h, status,2, status,0
  8434 ;; Tracked objects:
  8435 ;;		On entry : 0/0
  8436 ;;		On exit  : 0/0
  8437 ;;		Unchanged: 0/0
  8438 ;; Data sizes:     COMRAM   BANK0   BANK1   BANK2   BANK3   BANK4   BANK5
  8439 ;;      Params:         2       0       0       0       0       0       0
  8440 ;;      Locals:         0       0       0       0       0       0       0
  8441 ;;      Temps:          2       0       0       0       0       0       0
  8442 ;;      Totals:         4       0       0       0       0       0       0
  8443 ;;Total ram usage:        4 bytes
  8444 ;; Hardware stack levels used: 1
  8445 ;; Hardware stack levels required when called: 1
  8446 ;; This function calls:
  8447 ;;		Nothing
  8448 ;; This function is called by:
  8449 ;;		_login_screen
  8450 ;;		_change_password
  8451 ;; This function uses a non-reentrant model
  8452 ;;
  8453                           
  8454                           	psect	text44
  8455   0023DA                     __ptext44:
  8456                           	callstack 0
  8457   0023DA                     _strcmp:
  8458                           	callstack 28
  8459   0023DA  EFF1  F011         	goto	l3398
  8460   0023DE                     l3396:
  8461   0023DE  2A32               	incf	strcmp@l^0,f,c
  8462   0023E0  2A33               	incf	strcmp@r^0,f,c
  8463   0023E2                     l3398:
  8464   0023E2  5033               	movf	strcmp@r^0,w,c
  8465   0023E4  6ED9               	movwf	fsr2l,c
  8466   0023E6  6ADA               	clrf	fsr2h,c
  8467   0023E8  5032               	movf	strcmp@l^0,w,c
  8468   0023EA  6EE1               	movwf	fsr1l,c
  8469   0023EC  6AE2               	clrf	fsr1h,c
  8470   0023EE  50DE               	movf	postinc2,w,c
  8471   0023F0  18E6               	xorwf	postinc1,w,c
  8472   0023F2  A4D8               	btfss	status,2,c
  8473   0023F4  EFFE  F011         	goto	u2031
  8474   0023F8  EF00  F012         	goto	u2030
  8475   0023FC                     u2031:
  8476   0023FC  EF0B  F012         	goto	l3402
  8477   002400                     u2030:
  8478   002400  5032               	movf	strcmp@l^0,w,c
  8479   002402  6ED9               	movwf	fsr2l,c
  8480   002404  6ADA               	clrf	fsr2h,c
  8481   002406  50DF               	movf	indf2,w,c
  8482   002408  A4D8               	btfss	status,2,c
  8483   00240A  EF09  F012         	goto	u2041
  8484   00240E  EF0B  F012         	goto	u2040
  8485   002412                     u2041:
  8486   002412  EFEF  F011         	goto	l3396
  8487   002416                     u2040:
  8488   002416                     l3402:
  8489   002416  5032               	movf	strcmp@l^0,w,c
  8490   002418  6ED9               	movwf	fsr2l,c
  8491   00241A  6ADA               	clrf	fsr2h,c
  8492   00241C  50DF               	movf	indf2,w,c
  8493   00241E  6E34               	movwf	??_strcmp^0,c
  8494   002420  5033               	movf	strcmp@r^0,w,c
  8495   002422  6ED9               	movwf	fsr2l,c
  8496   002424  6ADA               	clrf	fsr2h,c
  8497   002426  50DF               	movf	indf2,w,c
  8498   002428  6E35               	movwf	(??_strcmp+1)^0,c
  8499   00242A  5035               	movf	(??_strcmp+1)^0,w,c
  8500   00242C  5C34               	subwf	??_strcmp^0,w,c
  8501   00242E  6E32               	movwf	?_strcmp^0,c
  8502   002430  6A33               	clrf	(?_strcmp+1)^0,c
  8503   002432  A0D8               	btfss	status,0,c
  8504   002434  0633               	decf	(?_strcmp+1)^0,f,c
  8505   002436  0012               	return		;funcret
  8506   002438                     __end_of_strcmp:
  8507                           	callstack 0
  8508                           
  8509 ;; *************** function _clcd_putch *****************
  8510 ;; Defined at:
  8511 ;;		line 75 in file "CLCD_P.c"
  8512 ;; Parameters:    Size  Location     Type
  8513 ;;  data            1    wreg     const unsigned char 
  8514 ;;  addr            1   14[COMRAM] unsigned char 
  8515 ;; Auto vars:     Size  Location     Type
  8516 ;;  data            1   15[COMRAM] const unsigned char 
  8517 ;; Return value:  Size  Location     Type
  8518 ;;                  1    wreg      void 
  8519 ;; Registers used:
  8520 ;;		wreg, status,2, cstack
  8521 ;; Tracked objects:
  8522 ;;		On entry : 0/0
  8523 ;;		On exit  : 0/0
  8524 ;;		Unchanged: 0/0
  8525 ;; Data sizes:     COMRAM   BANK0   BANK1   BANK2   BANK3   BANK4   BANK5
  8526 ;;      Params:         1       0       0       0       0       0       0
  8527 ;;      Locals:         1       0       0       0       0       0       0
  8528 ;;      Temps:          0       0       0       0       0       0       0
  8529 ;;      Totals:         2       0       0       0       0       0       0
  8530 ;;Total ram usage:        2 bytes
  8531 ;; Hardware stack levels used: 1
  8532 ;; Hardware stack levels required when called: 2
  8533 ;; This function calls:
  8534 ;;		_clcd_write
  8535 ;; This function is called by:
  8536 ;;		_dash_board
  8537 ;;		_login_screen
  8538 ;;		_main_menu
  8539 ;;		_change_password
  8540 ;;		_set_time
  8541 ;; This function uses a non-reentrant model
  8542 ;;
  8543                           
  8544                           	psect	text45
  8545   00279E                     __ptext45:
  8546                           	callstack 0
  8547   00279E                     _clcd_putch:
  8548                           	callstack 27
  8549                           
  8550                           ;incstack = 0
  8551                           ;clcd_putch@data stored from wreg
  8552   00279E  6E41               	movwf	clcd_putch@data^0,c
  8553   0027A0                     
  8554                           ;CLCD_P.c: 75: void clcd_putch(const unsigned char data, unsigned char addr);CLCD_P.c: 7
      +                          6: {;CLCD_P.c: 77:  clcd_write(addr, 0);
  8555   0027A0  0E00               	movlw	0
  8556   0027A2  6E32               	movwf	clcd_write@control_bit^0,c
  8557   0027A4  5040               	movf	clcd_putch@addr^0,w,c
  8558   0027A6  EC35  F013         	call	_clcd_write
  8559                           
  8560                           ;CLCD_P.c: 78:  clcd_write(data, 1);
  8561   0027AA  0E01               	movlw	1
  8562   0027AC  6E32               	movwf	clcd_write@control_bit^0,c
  8563   0027AE  5041               	movf	clcd_putch@data^0,w,c
  8564   0027B0  EC35  F013         	call	_clcd_write
  8565   0027B4  0012               	return		;funcret
  8566   0027B6                     __end_of_clcd_putch:
  8567                           	callstack 0
  8568                           
  8569 ;; *************** function _clcd_print *****************
  8570 ;; Defined at:
  8571 ;;		line 66 in file "CLCD_P.c"
  8572 ;; Parameters:    Size  Location     Type
  8573 ;;  data            2    2[COMRAM] PTR const unsigned char 
  8574 ;;		 -> STR_174(16), STR_173(10), STR_172(13), STR_171(9), 
  8575 ;;		 -> STR_170(9), STR_169(3), STR_168(3), STR_167(3), 
  8576 ;;		 -> STR_166(3), STR_165(3), STR_164(3), STR_163(3), 
  8577 ;;		 -> STR_162(3), STR_161(3), STR_160(16), STR_159(10), 
  8578 ;;		 -> STR_158(13), STR_157(9), STR_156(9), STR_155(3), 
  8579 ;;		 -> STR_154(3), STR_153(3), STR_152(3), STR_151(3), 
  8580 ;;		 -> STR_150(3), STR_149(3), STR_148(3), STR_147(3), 
  8581 ;;		 -> STR_146(16), STR_145(10), STR_144(13), STR_143(9), 
  8582 ;;		 -> STR_142(9), STR_141(3), STR_140(3), STR_139(3), 
  8583 ;;		 -> STR_138(3), STR_137(3), STR_136(3), STR_135(3), 
  8584 ;;		 -> STR_134(3), STR_133(3), STR_132(16), STR_131(10), 
  8585 ;;		 -> STR_130(13), STR_129(9), STR_128(9), STR_127(3), 
  8586 ;;		 -> STR_126(3), STR_125(3), STR_124(3), STR_123(3), 
  8587 ;;		 -> STR_122(3), STR_121(3), STR_120(3), STR_119(3), 
  8588 ;;		 -> STR_118(16), STR_117(10), STR_116(13), STR_115(9), 
  8589 ;;		 -> STR_114(9), STR_113(3), STR_112(3), STR_111(3), 
  8590 ;;		 -> STR_110(3), STR_109(3), STR_108(3), STR_107(3), 
  8591 ;;		 -> STR_106(3), STR_105(3), STR_104(16), STR_103(10), 
  8592 ;;		 -> STR_102(13), STR_101(9), STR_100(9), STR_99(3), 
  8593 ;;		 -> STR_98(3), STR_97(3), STR_96(3), STR_95(3), 
  8594 ;;		 -> STR_94(3), STR_93(3), STR_92(3), STR_91(3), 
  8595 ;;		 -> STR_90(16), STR_89(10), STR_88(13), STR_87(9), 
  8596 ;;		 -> STR_86(9), STR_85(3), STR_84(3), STR_83(3), 
  8597 ;;		 -> STR_82(3), STR_81(3), STR_80(3), STR_79(3), 
  8598 ;;		 -> STR_78(3), STR_77(3), STR_76(16), STR_75(10), 
  8599 ;;		 -> STR_74(13), STR_73(9), STR_72(9), STR_71(3), 
  8600 ;;		 -> STR_70(3), STR_69(3), STR_68(3), STR_67(3), 
  8601 ;;		 -> STR_66(3), STR_65(3), STR_64(3), STR_63(3), 
  8602 ;;		 -> STR_62(16), STR_61(10), STR_60(13), STR_59(9), 
  8603 ;;		 -> STR_58(9), STR_57(3), STR_56(3), STR_55(3), 
  8604 ;;		 -> STR_54(3), STR_53(3), STR_52(3), STR_51(3), 
  8605 ;;		 -> STR_50(3), STR_49(3), STR_48(13), STR_47(10), 
  8606 ;;		 -> STR_46(10), STR_43(15), STR_42(10), view_log@log_event(16), 
  8607 ;;		 -> STR_41(17), STR_40(9), STR_39(14), STR_38(17), 
  8608 ;;		 -> STR_37(17), STR_36(13), STR_35(11), STR_34(8), 
  8609 ;;		 -> STR_33(12), STR_32(13), STR_31(15), STR_30(10), 
  8610 ;;		 -> STR_29(17), time(9), dashboard(16), STR_28(16), 
  8611 ;;		 -> STR_27(10), STR_26(13), STR_25(9), STR_24(9), 
  8612 ;;		 -> STR_23(3), STR_22(3), STR_21(3), STR_20(3), 
  8613 ;;		 -> STR_19(3), STR_18(3), STR_17(3), STR_16(3), 
  8614 ;;		 -> STR_15(3), STR_14(16), STR_13(10), STR_12(13), 
  8615 ;;		 -> STR_11(9), STR_10(9), STR_9(3), STR_8(3), 
  8616 ;;		 -> STR_7(3), STR_6(3), STR_5(3), STR_4(3), 
  8617 ;;		 -> STR_3(3), STR_2(3), STR_1(3), 
  8618 ;;  addr            1    4[COMRAM] unsigned char 
  8619 ;; Auto vars:     Size  Location     Type
  8620 ;;		None
  8621 ;; Return value:  Size  Location     Type
  8622 ;;                  1    wreg      void 
  8623 ;; Registers used:
  8624 ;;		wreg, fsr0l, fsr0h, status,2, status,0, tblptrl, tblptrh, tblptru, cstack
  8625 ;; Tracked objects:
  8626 ;;		On entry : 0/0
  8627 ;;		On exit  : 0/0
  8628 ;;		Unchanged: 0/0
  8629 ;; Data sizes:     COMRAM   BANK0   BANK1   BANK2   BANK3   BANK4   BANK5
  8630 ;;      Params:         3       0       0       0       0       0       0
  8631 ;;      Locals:         0       0       0       0       0       0       0
  8632 ;;      Temps:          0       0       0       0       0       0       0
  8633 ;;      Totals:         3       0       0       0       0       0       0
  8634 ;;Total ram usage:        3 bytes
  8635 ;; Hardware stack levels used: 1
  8636 ;; Hardware stack levels required when called: 2
  8637 ;; This function calls:
  8638 ;;		_clcd_write
  8639 ;; This function is called by:
  8640 ;;		_dash_board
  8641 ;;		_login_screen
  8642 ;;		_main_menu
  8643 ;;		_change_password
  8644 ;;		_set_time
  8645 ;;		_view_log
  8646 ;;		_downlode_log
  8647 ;;		_clear_log
  8648 ;; This function uses a non-reentrant model
  8649 ;;
  8650                           
  8651                           	psect	text46
  8652   0022AC                     __ptext46:
  8653                           	callstack 0
  8654   0022AC                     _clcd_print:
  8655                           	callstack 27
  8656   0022AC                     
  8657                           ;CLCD_P.c: 66: void clcd_print(const unsigned char *data, unsigned char addr);CLCD_P.c: 
      +                          67: {;CLCD_P.c: 68:  clcd_write(addr, 0);
  8658   0022AC  0E00               	movlw	0
  8659   0022AE  6E32               	movwf	clcd_write@control_bit^0,c
  8660   0022B0  5036               	movf	clcd_print@addr^0,w,c
  8661   0022B2  EC35  F013         	call	_clcd_write
  8662                           
  8663                           ;CLCD_P.c: 69:  while (*data != '\0')
  8664   0022B6  EF73  F011         	goto	l3332
  8665   0022BA                     l3328:
  8666                           
  8667                           ;CLCD_P.c: 70:  {;CLCD_P.c: 71:   clcd_write(*data++, 1);
  8668   0022BA  0E01               	movlw	1
  8669   0022BC  6E32               	movwf	clcd_write@control_bit^0,c
  8670   0022BE  C034  FFF6         	movff	clcd_print@data,tblptrl
  8671   0022C2  C035  FFF7         	movff	clcd_print@data+1,tblptrh
  8672   0022C6  6AF8               	clrf	tblptru,c
  8673   0022C8  0E05               	movlw	(high __ramtop+-1)
  8674   0022CA  64F7               	cpfsgt	tblptrh,c
  8675   0022CC  D003               	bra	u1967
  8676   0022CE  0008               	tblrd		*
  8677   0022D0  50F5               	movf	tablat,w,c
  8678   0022D2  D005               	bra	u1960
  8679   0022D4                     u1967:
  8680   0022D4  CFF6 FFE9          	movff	tblptrl,fsr0l
  8681   0022D8  CFF7 FFEA          	movff	tblptrh,fsr0h
  8682   0022DC  50EF               	movf	indf0,w,c
  8683   0022DE                     u1960:
  8684   0022DE  EC35  F013         	call	_clcd_write
  8685   0022E2  4A34               	infsnz	clcd_print@data^0,f,c
  8686   0022E4  2A35               	incf	(clcd_print@data+1)^0,f,c
  8687   0022E6                     l3332:
  8688                           
  8689                           ;CLCD_P.c: 69:  while (*data != '\0')
  8690   0022E6  C034  FFF6         	movff	clcd_print@data,tblptrl
  8691   0022EA  C035  FFF7         	movff	clcd_print@data+1,tblptrh
  8692   0022EE  6AF8               	clrf	tblptru,c
  8693   0022F0  0E05               	movlw	(high __ramtop+-1)
  8694   0022F2  64F7               	cpfsgt	tblptrh,c
  8695   0022F4  D003               	bra	u1977
  8696   0022F6  0008               	tblrd		*
  8697   0022F8  50F5               	movf	tablat,w,c
  8698   0022FA  D005               	bra	u1970
  8699   0022FC                     u1977:
  8700   0022FC  CFF6 FFE9          	movff	tblptrl,fsr0l
  8701   002300  CFF7 FFEA          	movff	tblptrh,fsr0h
  8702   002304  50EF               	movf	indf0,w,c
  8703   002306                     u1970:
  8704   002306  0900               	iorlw	0
  8705   002308  A4D8               	btfss	status,2,c
  8706   00230A  EF89  F011         	goto	u1981
  8707   00230E  EF8B  F011         	goto	u1980
  8708   002312                     u1981:
  8709   002312  EF5D  F011         	goto	l3328
  8710   002316                     u1980:
  8711   002316  0012               	return		;funcret
  8712   002318                     __end_of_clcd_print:
  8713                           	callstack 0
  8714                           
  8715 ;; *************** function _clcd_write *****************
  8716 ;; Defined at:
  8717 ;;		line 12 in file "CLCD_P.c"
  8718 ;; Parameters:    Size  Location     Type
  8719 ;;  byte            1    wreg     unsigned char 
  8720 ;;  control_bit     1    0[COMRAM] unsigned char 
  8721 ;; Auto vars:     Size  Location     Type
  8722 ;;  byte            1    1[COMRAM] unsigned char 
  8723 ;; Return value:  Size  Location     Type
  8724 ;;                  1    wreg      void 
  8725 ;; Registers used:
  8726 ;;		wreg
  8727 ;; Tracked objects:
  8728 ;;		On entry : 0/0
  8729 ;;		On exit  : 0/0
  8730 ;;		Unchanged: 0/0
  8731 ;; Data sizes:     COMRAM   BANK0   BANK1   BANK2   BANK3   BANK4   BANK5
  8732 ;;      Params:         1       0       0       0       0       0       0
  8733 ;;      Locals:         1       0       0       0       0       0       0
  8734 ;;      Temps:          0       0       0       0       0       0       0
  8735 ;;      Totals:         2       0       0       0       0       0       0
  8736 ;;Total ram usage:        2 bytes
  8737 ;; Hardware stack levels used: 1
  8738 ;; Hardware stack levels required when called: 1
  8739 ;; This function calls:
  8740 ;;		Nothing
  8741 ;; This function is called by:
  8742 ;;		_dash_board
  8743 ;;		_login_screen
  8744 ;;		_main_menu
  8745 ;;		_change_password
  8746 ;;		_set_time
  8747 ;;		_view_log
  8748 ;;		_downlode_log
  8749 ;;		_clear_log
  8750 ;;		_init_clcd
  8751 ;;		_clcd_print
  8752 ;;		_clcd_putch
  8753 ;; This function uses a non-reentrant model
  8754 ;;
  8755                           
  8756                           	psect	text47
  8757   00266A                     __ptext47:
  8758                           	callstack 0
  8759   00266A                     _clcd_write:
  8760                           	callstack 28
  8761                           
  8762                           ;incstack = 0
  8763                           ;clcd_write@byte stored from wreg
  8764   00266A  6E33               	movwf	clcd_write@byte^0,c
  8765   00266C                     
  8766                           ;CLCD_P.c: 12: void clcd_write(unsigned char byte, unsigned char control_bit);CLCD_P.c: 
      +                          13: {;CLCD_P.c: 14:  RC1 = control_bit;
  8767   00266C  B032               	btfsc	clcd_write@control_bit^0,0,c
  8768   00266E  EF3B  F013         	goto	u1781
  8769   002672  EF3E  F013         	goto	u1780
  8770   002676                     u1781:
  8771   002676  8282               	bsf	3970,1,c	;volatile
  8772   002678  EF3F  F013         	goto	u1795
  8773   00267C                     u1780:
  8774   00267C  9282               	bcf	3970,1,c	;volatile
  8775   00267E                     u1795:
  8776   00267E                     
  8777                           ;CLCD_P.c: 15:  PORTD = byte;
  8778   00267E  C033  FF83         	movff	clcd_write@byte,3971	;volatile
  8779   002682                     
  8780                           ;CLCD_P.c: 18:  RC2 = 1;
  8781   002682  8482               	bsf	3970,2,c	;volatile
  8782   002684                     
  8783                           ;CLCD_P.c: 19:  RC2 = 0;
  8784   002684  9482               	bcf	3970,2,c	;volatile
  8785   002686                     
  8786                           ;CLCD_P.c: 21:  TRISD7 = 0xFF;
  8787   002686  8E95               	bsf	3989,7,c	;volatile
  8788   002688                     
  8789                           ;CLCD_P.c: 22:  RC0 = 1;
  8790   002688  8082               	bsf	3970,0,c	;volatile
  8791   00268A                     
  8792                           ;CLCD_P.c: 23:  RC1 = 0;
  8793   00268A  9282               	bcf	3970,1,c	;volatile
  8794   00268C                     l3134:
  8795                           
  8796                           ;CLCD_P.c: 26:  {;CLCD_P.c: 27:   RC2 = 1;
  8797   00268C  8482               	bsf	3970,2,c	;volatile
  8798   00268E                     
  8799                           ;CLCD_P.c: 28:   RC2 = 0;
  8800   00268E  9482               	bcf	3970,2,c	;volatile
  8801   002690                     
  8802                           ;CLCD_P.c: 29:  } while (RD7);
  8803   002690  BE83               	btfsc	3971,7,c	;volatile
  8804   002692  EF4D  F013         	goto	u1801
  8805   002696  EF4F  F013         	goto	u1800
  8806   00269A                     u1801:
  8807   00269A  EF46  F013         	goto	l3134
  8808   00269E                     u1800:
  8809   00269E                     
  8810                           ;CLCD_P.c: 31:  RC0 = 0;
  8811   00269E  9082               	bcf	3970,0,c	;volatile
  8812                           
  8813                           ;CLCD_P.c: 32:  TRISD7 = 0x00;
  8814   0026A0  9E95               	bcf	3989,7,c	;volatile
  8815   0026A2  0012               	return		;funcret
  8816   0026A4                     __end_of_clcd_write:
  8817                           	callstack 0
  8818                           
  8819 ;; *************** function _isr *****************
  8820 ;; Defined at:
  8821 ;;		line 12 in file "isr_timer_p.c"
  8822 ;; Parameters:    Size  Location     Type
  8823 ;;		None
  8824 ;; Auto vars:     Size  Location     Type
  8825 ;;		None
  8826 ;; Return value:  Size  Location     Type
  8827 ;;                  1    wreg      void 
  8828 ;; Registers used:
  8829 ;;		wreg, status,2, status,0
  8830 ;; Tracked objects:
  8831 ;;		On entry : 0/0
  8832 ;;		On exit  : 0/0
  8833 ;;		Unchanged: 0/0
  8834 ;; Data sizes:     COMRAM   BANK0   BANK1   BANK2   BANK3   BANK4   BANK5
  8835 ;;      Params:         0       0       0       0       0       0       0
  8836 ;;      Locals:         0       0       0       0       0       0       0
  8837 ;;      Temps:          0       0       0       0       0       0       0
  8838 ;;      Totals:         0       0       0       0       0       0       0
  8839 ;;Total ram usage:        0 bytes
  8840 ;; Hardware stack levels used: 1
  8841 ;; This function calls:
  8842 ;;		Nothing
  8843 ;; This function is called by:
  8844 ;;		Interrupt level 2
  8845 ;; This function uses a non-reentrant model
  8846 ;;
  8847                           
  8848                           	psect	intcode
  8849   000008                     __pintcode:
  8850                           	callstack 0
  8851   000008                     _isr:
  8852                           	callstack 24
  8853                           
  8854                           ;incstack = 0
  8855   000008  825E               	bsf	int$flags,1,c	;set compiler interrupt flag (level 2)
  8856   00000A  EDE1  F00E         	call	int_func,f	;refresh shadow registers
  8857                           
  8858                           	psect	intcode_body
  8859   001DC2                     __pintcode_body:
  8860                           	callstack 24
  8861   001DC2                     int_func:
  8862                           	callstack 24
  8863   001DC2  0006               	pop		; remove dummy address from shadow register refresh
  8864   001DC4                     
  8865                           ;isr_timer_p.c: 14:     static unsigned long int count,count2,count3;;isr_timer_p.c: 15:
      +                               if(TMR0IF)
  8866   001DC4  A4F2               	btfss	4082,2,c	;volatile
  8867   001DC6  EFE7  F00E         	goto	i2u328_41
  8868   001DCA  EFE9  F00E         	goto	i2u328_40
  8869   001DCE                     i2u328_41:
  8870   001DCE  EF58  F00F         	goto	i2l710
  8871   001DD2                     i2u328_40:
  8872   001DD2                     
  8873                           ;isr_timer_p.c: 16:     {;isr_timer_p.c: 17:         TMR0 = TMR0+8;
  8874   001DD2  0E08               	movlw	8
  8875   001DD4  24D6               	addwf	214,w,c	;volatile
  8876   001DD6  6ED6               	movwf	214,c	;volatile
  8877   001DD8  0E00               	movlw	0
  8878   001DDA  20D7               	addwfc	215,w,c	;volatile
  8879   001DDC  6ED7               	movwf	215,c	;volatile
  8880                           
  8881                           ;isr_timer_p.c: 19:         if(++count == 20000)
  8882   001DDE  0E01               	movlw	1
  8883   001DE0  0100               	movlb	0	; () banked
  8884   001DE2  27B8               	addwf	isr@count& (0+255),f,b
  8885   001DE4  0E00               	movlw	0
  8886   001DE6  23B9               	addwfc	(isr@count+1)& (0+255),f,b
  8887   001DE8  23BA               	addwfc	(isr@count+2)& (0+255),f,b
  8888   001DEA  23BB               	addwfc	(isr@count+3)& (0+255),f,b
  8889   001DEC  0E20               	movlw	32
  8890   001DEE  19B8               	xorwf	isr@count& (0+255),w,b
  8891   001DF0  E109               	bnz	i2u329_41
  8892   001DF2  0E4E               	movlw	78
  8893   001DF4  19B9               	xorwf	(isr@count+1)& (0+255),w,b
  8894   001DF6  11BA               	iorwf	(isr@count+2)& (0+255),w,b
  8895   001DF8  11BB               	iorwf	(isr@count+3)& (0+255),w,b
  8896   001DFA  A4D8               	btfss	status,2,c
  8897   001DFC  EF02  F00F         	goto	i2u329_41
  8898   001E00  EF04  F00F         	goto	i2u329_40
  8899   001E04                     i2u329_41:
  8900   001E04  EF0F  F00F         	goto	i2l4348
  8901   001E08                     i2u329_40:
  8902   001E08                     
  8903                           ; BSR set to: 0
  8904                           ;isr_timer_p.c: 20:         {;isr_timer_p.c: 21:             count =0;
  8905   001E08  0E00               	movlw	0
  8906   001E0A  6FB8               	movwf	isr@count& (0+255),b
  8907   001E0C  0E00               	movlw	0
  8908   001E0E  6FB9               	movwf	(isr@count+1)& (0+255),b
  8909   001E10  0E00               	movlw	0
  8910   001E12  6FBA               	movwf	(isr@count+2)& (0+255),b
  8911   001E14  0E00               	movlw	0
  8912   001E16  6FBB               	movwf	(isr@count+3)& (0+255),b
  8913   001E18                     
  8914                           ; BSR set to: 0
  8915                           ;isr_timer_p.c: 22:             at_fail--;
  8916   001E18  0659               	decf	_at_fail^0,f,c
  8917   001E1A  A0D8               	btfss	status,0,c
  8918   001E1C  065A               	decf	(_at_fail+1)^0,f,c
  8919   001E1E                     i2l4348:
  8920                           
  8921                           ; BSR set to: 0
  8922                           ;isr_timer_p.c: 24:         if(++count2 == 20000)
  8923   001E1E  0E01               	movlw	1
  8924   001E20  27B4               	addwf	isr@count2& (0+255),f,b
  8925   001E22  0E00               	movlw	0
  8926   001E24  23B5               	addwfc	(isr@count2+1)& (0+255),f,b
  8927   001E26  23B6               	addwfc	(isr@count2+2)& (0+255),f,b
  8928   001E28  23B7               	addwfc	(isr@count2+3)& (0+255),f,b
  8929   001E2A  0E20               	movlw	32
  8930   001E2C  19B4               	xorwf	isr@count2& (0+255),w,b
  8931   001E2E  E109               	bnz	i2u330_41
  8932   001E30  0E4E               	movlw	78
  8933   001E32  19B5               	xorwf	(isr@count2+1)& (0+255),w,b
  8934   001E34  11B6               	iorwf	(isr@count2+2)& (0+255),w,b
  8935   001E36  11B7               	iorwf	(isr@count2+3)& (0+255),w,b
  8936   001E38  A4D8               	btfss	status,2,c
  8937   001E3A  EF21  F00F         	goto	i2u330_41
  8938   001E3E  EF23  F00F         	goto	i2u330_40
  8939   001E42                     i2u330_41:
  8940   001E42  EF2E  F00F         	goto	i2l4354
  8941   001E46                     i2u330_40:
  8942   001E46                     
  8943                           ; BSR set to: 0
  8944                           ;isr_timer_p.c: 25:         {;isr_timer_p.c: 26:             count2=0;
  8945   001E46  0E00               	movlw	0
  8946   001E48  6FB4               	movwf	isr@count2& (0+255),b
  8947   001E4A  0E00               	movlw	0
  8948   001E4C  6FB5               	movwf	(isr@count2+1)& (0+255),b
  8949   001E4E  0E00               	movlw	0
  8950   001E50  6FB6               	movwf	(isr@count2+2)& (0+255),b
  8951   001E52  0E00               	movlw	0
  8952   001E54  6FB7               	movwf	(isr@count2+3)& (0+255),b
  8953   001E56                     
  8954                           ; BSR set to: 0
  8955                           ;isr_timer_p.c: 27:             E_P_T--;
  8956   001E56  0780               	decf	_E_P_T& (0+255),f,b
  8957   001E58  A0D8               	btfss	status,0,c
  8958   001E5A  0781               	decf	(_E_P_T+1)& (0+255),f,b
  8959   001E5C                     i2l4354:
  8960                           
  8961                           ; BSR set to: 0
  8962                           ;isr_timer_p.c: 29:         if(++count3 == 10000)
  8963   001E5C  0E01               	movlw	1
  8964   001E5E  27B0               	addwf	isr@count3& (0+255),f,b
  8965   001E60  0E00               	movlw	0
  8966   001E62  23B1               	addwfc	(isr@count3+1)& (0+255),f,b
  8967   001E64  23B2               	addwfc	(isr@count3+2)& (0+255),f,b
  8968   001E66  23B3               	addwfc	(isr@count3+3)& (0+255),f,b
  8969   001E68  0E10               	movlw	16
  8970   001E6A  19B0               	xorwf	isr@count3& (0+255),w,b
  8971   001E6C  E109               	bnz	i2u331_41
  8972   001E6E  0E27               	movlw	39
  8973   001E70  19B1               	xorwf	(isr@count3+1)& (0+255),w,b
  8974   001E72  11B2               	iorwf	(isr@count3+2)& (0+255),w,b
  8975   001E74  11B3               	iorwf	(isr@count3+3)& (0+255),w,b
  8976   001E76  A4D8               	btfss	status,2,c
  8977   001E78  EF40  F00F         	goto	i2u331_41
  8978   001E7C  EF42  F00F         	goto	i2u331_40
  8979   001E80                     i2u331_41:
  8980   001E80  EF57  F00F         	goto	i2l4360
  8981   001E84                     i2u331_40:
  8982   001E84                     
  8983                           ; BSR set to: 0
  8984                           ;isr_timer_p.c: 30:         {;isr_timer_p.c: 31:             blink = !blink;
  8985   001E84  502A               	movf	_blink^0,w,c
  8986   001E86  102B               	iorwf	(_blink+1)^0,w,c
  8987   001E88  B4D8               	btfsc	status,2,c
  8988   001E8A  EF49  F00F         	goto	i2u332_41
  8989   001E8E  EF4C  F00F         	goto	i2u332_40
  8990   001E92                     i2u332_41:
  8991   001E92  0E01               	movlw	1
  8992   001E94  EF4D  F00F         	goto	i2u333_40
  8993   001E98                     i2u332_40:
  8994   001E98  0E00               	movlw	0
  8995   001E9A                     i2u333_40:
  8996   001E9A  6E2A               	movwf	_blink^0,c
  8997   001E9C  6A2B               	clrf	(_blink+1)^0,c
  8998   001E9E                     
  8999                           ; BSR set to: 0
  9000                           ;isr_timer_p.c: 32:             count3 = 0;
  9001   001E9E  0E00               	movlw	0
  9002   001EA0  6FB0               	movwf	isr@count3& (0+255),b
  9003   001EA2  0E00               	movlw	0
  9004   001EA4  6FB1               	movwf	(isr@count3+1)& (0+255),b
  9005   001EA6  0E00               	movlw	0
  9006   001EA8  6FB2               	movwf	(isr@count3+2)& (0+255),b
  9007   001EAA  0E00               	movlw	0
  9008   001EAC  6FB3               	movwf	(isr@count3+3)& (0+255),b
  9009   001EAE                     i2l4360:
  9010                           
  9011                           ; BSR set to: 0
  9012                           ;isr_timer_p.c: 34:         TMR0IF = 0;
  9013   001EAE  94F2               	bcf	4082,2,c	;volatile
  9014   001EB0                     i2l710:
  9015   001EB0  925E               	bcf	int$flags,1,c	;clear compiler interrupt flag (level 2)
  9016   001EB2  0011               	retfie		f
  9017   001EB4                     __end_of_isr:
  9018                           	callstack 0
  9019                           
  9020                           	psect	rparam
  9021   000000                     
  9022                           	psect	temp
  9023   00005E                     btemp:
  9024                           	callstack 0
  9025   00005E                     	ds	1
  9026   000000                     int$flags	set	btemp
  9027   000000                     wtemp8	set	btemp+1
  9028   000000                     ttemp5	set	btemp+1
  9029   000000                     ttemp6	set	btemp+4
  9030   000000                     ttemp7	set	btemp+8
  9031                           
  9032                           	psect	idloc
  9033                           
  9034                           ;Config register IDLOC0 @ 0x200000
  9035                           ;	unspecified, using default values
  9036   200000                     	org	2097152
  9037   200000  FF                 	db	255
  9038                           
  9039                           ;Config register IDLOC1 @ 0x200001
  9040                           ;	unspecified, using default values
  9041   200001                     	org	2097153
  9042   200001  FF                 	db	255
  9043                           
  9044                           ;Config register IDLOC2 @ 0x200002
  9045                           ;	unspecified, using default values
  9046   200002                     	org	2097154
  9047   200002  FF                 	db	255
  9048                           
  9049                           ;Config register IDLOC3 @ 0x200003
  9050                           ;	unspecified, using default values
  9051   200003                     	org	2097155
  9052   200003  FF                 	db	255
  9053                           
  9054                           ;Config register IDLOC4 @ 0x200004
  9055                           ;	unspecified, using default values
  9056   200004                     	org	2097156
  9057   200004  FF                 	db	255
  9058                           
  9059                           ;Config register IDLOC5 @ 0x200005
  9060                           ;	unspecified, using default values
  9061   200005                     	org	2097157
  9062   200005  FF                 	db	255
  9063                           
  9064                           ;Config register IDLOC6 @ 0x200006
  9065                           ;	unspecified, using default values
  9066   200006                     	org	2097158
  9067   200006  FF                 	db	255
  9068                           
  9069                           ;Config register IDLOC7 @ 0x200007
  9070                           ;	unspecified, using default values
  9071   200007                     	org	2097159
  9072   200007  FF                 	db	255
  9073                           
  9074                           	psect	config
  9075                           
  9076                           ; Padding undefined space
  9077   300000                     	org	3145728
  9078   300000  FF                 	db	255
  9079                           
  9080                           ;Config register CONFIG1H @ 0x300001
  9081                           ;	unspecified, using default values
  9082                           ;	Oscillator Selection bits
  9083                           ;	OSC = 0x7, unprogrammed default
  9084                           ;	Fail-Safe Clock Monitor Enable bit
  9085                           ;	FCMEN = 0x0, unprogrammed default
  9086                           ;	Internal/External Oscillator Switchover bit
  9087                           ;	IESO = 0x0, unprogrammed default
  9088   300001                     	org	3145729
  9089   300001  07                 	db	7
  9090                           
  9091                           ;Config register CONFIG2L @ 0x300002
  9092                           ;	unspecified, using default values
  9093                           ;	Power-up Timer Enable bit
  9094                           ;	PWRT = 0x1, unprogrammed default
  9095                           ;	Brown-out Reset Enable bits
  9096                           ;	BOREN = 0x3, unprogrammed default
  9097                           ;	Brown-out Reset Voltage bits
  9098                           ;	BORV = 0x3, unprogrammed default
  9099   300002                     	org	3145730
  9100   300002  1F                 	db	31
  9101                           
  9102                           ;Config register CONFIG2H @ 0x300003
  9103                           ;	unspecified, using default values
  9104                           ;	Watchdog Timer Enable bit
  9105                           ;	WDT = 0x1, unprogrammed default
  9106                           ;	Watchdog Timer Postscale Select bits
  9107                           ;	WDTPS = 0xF, unprogrammed default
  9108   300003                     	org	3145731
  9109   300003  1F                 	db	31
  9110                           
  9111                           ; Padding undefined space
  9112   300004                     	org	3145732
  9113   300004  FF                 	db	255
  9114                           
  9115                           ;Config register CONFIG3H @ 0x300005
  9116                           ;	unspecified, using default values
  9117                           ;	PORTB A/D Enable bit
  9118                           ;	PBADEN = 0x1, unprogrammed default
  9119                           ;	Low-Power Timer 1 Oscillator Enable bit
  9120                           ;	LPT1OSC = 0x0, unprogrammed default
  9121                           ;	MCLR Pin Enable bit
  9122                           ;	MCLRE = 0x1, unprogrammed default
  9123   300005                     	org	3145733
  9124   300005  82                 	db	130
  9125                           
  9126                           ;Config register CONFIG4L @ 0x300006
  9127                           ;	unspecified, using default values
  9128                           ;	Stack Full/Underflow Reset Enable bit
  9129                           ;	STVREN = 0x1, unprogrammed default
  9130                           ;	Single-Supply ICSP Enable bit
  9131                           ;	LVP = 0x1, unprogrammed default
  9132                           ;	Boot Block Size Select bit
  9133                           ;	BBSIZ = 0x0, unprogrammed default
  9134                           ;	Extended Instruction Set Enable bit
  9135                           ;	XINST = 0x0, unprogrammed default
  9136                           ;	Background Debugger Enable bit
  9137                           ;	DEBUG = 0x1, unprogrammed default
  9138   300006                     	org	3145734
  9139   300006  85                 	db	133
  9140                           
  9141                           ; Padding undefined space
  9142   300007                     	org	3145735
  9143   300007  FF                 	db	255
  9144                           
  9145                           ;Config register CONFIG5L @ 0x300008
  9146                           ;	unspecified, using default values
  9147                           ;	Code Protection bit
  9148                           ;	CP0 = 0x1, unprogrammed default
  9149                           ;	Code Protection bit
  9150                           ;	CP1 = 0x1, unprogrammed default
  9151                           ;	Code Protection bit
  9152                           ;	CP2 = 0x1, unprogrammed default
  9153                           ;	Code Protection bit
  9154                           ;	CP3 = 0x1, unprogrammed default
  9155   300008                     	org	3145736
  9156   300008  0F                 	db	15
  9157                           
  9158                           ;Config register CONFIG5H @ 0x300009
  9159                           ;	unspecified, using default values
  9160                           ;	Boot Block Code Protection bit
  9161                           ;	CPB = 0x1, unprogrammed default
  9162                           ;	Data EEPROM Code Protection bit
  9163                           ;	CPD = 0x1, unprogrammed default
  9164   300009                     	org	3145737
  9165   300009  C0                 	db	192
  9166                           
  9167                           ;Config register CONFIG6L @ 0x30000A
  9168                           ;	unspecified, using default values
  9169                           ;	Write Protection bit
  9170                           ;	WRT0 = 0x1, unprogrammed default
  9171                           ;	Write Protection bit
  9172                           ;	WRT1 = 0x1, unprogrammed default
  9173                           ;	Write Protection bit
  9174                           ;	WRT2 = 0x1, unprogrammed default
  9175                           ;	Write Protection bit
  9176                           ;	WRT3 = 0x1, unprogrammed default
  9177   30000A                     	org	3145738
  9178   30000A  0F                 	db	15
  9179                           
  9180                           ;Config register CONFIG6H @ 0x30000B
  9181                           ;	unspecified, using default values
  9182                           ;	Configuration Register Write Protection bit
  9183                           ;	WRTC = 0x1, unprogrammed default
  9184                           ;	Boot Block Write Protection bit
  9185                           ;	WRTB = 0x1, unprogrammed default
  9186                           ;	Data EEPROM Write Protection bit
  9187                           ;	WRTD = 0x1, unprogrammed default
  9188   30000B                     	org	3145739
  9189   30000B  E0                 	db	224
  9190                           
  9191                           ;Config register CONFIG7L @ 0x30000C
  9192                           ;	unspecified, using default values
  9193                           ;	Table Read Protection bit
  9194                           ;	EBTR0 = 0x1, unprogrammed default
  9195                           ;	Table Read Protection bit
  9196                           ;	EBTR1 = 0x1, unprogrammed default
  9197                           ;	Table Read Protection bit
  9198                           ;	EBTR2 = 0x1, unprogrammed default
  9199                           ;	Table Read Protection bit
  9200                           ;	EBTR3 = 0x1, unprogrammed default
  9201   30000C                     	org	3145740
  9202   30000C  0F                 	db	15
  9203                           
  9204                           ;Config register CONFIG7H @ 0x30000D
  9205                           ;	unspecified, using default values
  9206                           ;	Boot Block Table Read Protection bit
  9207                           ;	EBTRB = 0x1, unprogrammed default
  9208   30000D                     	org	3145741
  9209   30000D  40                 	db	64
  9210                           tosu	equ	0xFFF
  9211                           tosh	equ	0xFFE
  9212                           tosl	equ	0xFFD
  9213                           stkptr	equ	0xFFC
  9214                           pclatu	equ	0xFFB
  9215                           pclath	equ	0xFFA
  9216                           pcl	equ	0xFF9
  9217                           tblptru	equ	0xFF8
  9218                           tblptrh	equ	0xFF7
  9219                           tblptrl	equ	0xFF6
  9220                           tablat	equ	0xFF5
  9221                           prodh	equ	0xFF4
  9222                           prodl	equ	0xFF3
  9223                           indf0	equ	0xFEF
  9224                           postinc0	equ	0xFEE
  9225                           postdec0	equ	0xFED
  9226                           preinc0	equ	0xFEC
  9227                           plusw0	equ	0xFEB
  9228                           fsr0h	equ	0xFEA
  9229                           fsr0l	equ	0xFE9
  9230                           wreg	equ	0xFE8
  9231                           indf1	equ	0xFE7
  9232                           postinc1	equ	0xFE6
  9233                           postdec1	equ	0xFE5
  9234                           preinc1	equ	0xFE4
  9235                           plusw1	equ	0xFE3
  9236                           fsr1h	equ	0xFE2
  9237                           fsr1l	equ	0xFE1
  9238                           bsr	equ	0xFE0
  9239                           indf2	equ	0xFDF
  9240                           postinc2	equ	0xFDE
  9241                           postdec2	equ	0xFDD
  9242                           preinc2	equ	0xFDC
  9243                           plusw2	equ	0xFDB
  9244                           fsr2h	equ	0xFDA
  9245                           fsr2l	equ	0xFD9
  9246                           status	equ	0xFD8

Data Sizes:
    Strings     314
    Constant    0
    Data        76
    BSS         111
    Persistent  0
    Stack       0

Auto Spaces:
    Space          Size  Autos    Used
    COMRAM           94     37      93
    BANK0           160      0     120
    BANK1           256    174     185
    BANK2           256      0       0
    BANK3           256      0       0
    BANK4           256      0       0
    BANK5           256      0       0

Pointer List with Targets:

    clcd_print@data	PTR const unsigned char  size(2) Largest target is 17
		 -> dashboard(BANK0[16]), STR_1(CODE[3]), STR_10(CODE[9]), STR_100(CODE[9]), 
		 -> STR_101(CODE[9]), STR_102(CODE[13]), STR_103(CODE[10]), STR_104(CODE[16]), 
		 -> STR_105(CODE[3]), STR_106(CODE[3]), STR_107(CODE[3]), STR_108(CODE[3]), 
		 -> STR_109(CODE[3]), STR_11(CODE[9]), STR_110(CODE[3]), STR_111(CODE[3]), 
		 -> STR_112(CODE[3]), STR_113(CODE[3]), STR_114(CODE[9]), STR_115(CODE[9]), 
		 -> STR_116(CODE[13]), STR_117(CODE[10]), STR_118(CODE[16]), STR_119(CODE[3]), 
		 -> STR_12(CODE[13]), STR_120(CODE[3]), STR_121(CODE[3]), STR_122(CODE[3]), 
		 -> STR_123(CODE[3]), STR_124(CODE[3]), STR_125(CODE[3]), STR_126(CODE[3]), 
		 -> STR_127(CODE[3]), STR_128(CODE[9]), STR_129(CODE[9]), STR_13(CODE[10]), 
		 -> STR_130(CODE[13]), STR_131(CODE[10]), STR_132(CODE[16]), STR_133(CODE[3]), 
		 -> STR_134(CODE[3]), STR_135(CODE[3]), STR_136(CODE[3]), STR_137(CODE[3]), 
		 -> STR_138(CODE[3]), STR_139(CODE[3]), STR_14(CODE[16]), STR_140(CODE[3]), 
		 -> STR_141(CODE[3]), STR_142(CODE[9]), STR_143(CODE[9]), STR_144(CODE[13]), 
		 -> STR_145(CODE[10]), STR_146(CODE[16]), STR_147(CODE[3]), STR_148(CODE[3]), 
		 -> STR_149(CODE[3]), STR_15(CODE[3]), STR_150(CODE[3]), STR_151(CODE[3]), 
		 -> STR_152(CODE[3]), STR_153(CODE[3]), STR_154(CODE[3]), STR_155(CODE[3]), 
		 -> STR_156(CODE[9]), STR_157(CODE[9]), STR_158(CODE[13]), STR_159(CODE[10]), 
		 -> STR_16(CODE[3]), STR_160(CODE[16]), STR_161(CODE[3]), STR_162(CODE[3]), 
		 -> STR_163(CODE[3]), STR_164(CODE[3]), STR_165(CODE[3]), STR_166(CODE[3]), 
		 -> STR_167(CODE[3]), STR_168(CODE[3]), STR_169(CODE[3]), STR_17(CODE[3]), 
		 -> STR_170(CODE[9]), STR_171(CODE[9]), STR_172(CODE[13]), STR_173(CODE[10]), 
		 -> STR_174(CODE[16]), STR_18(CODE[3]), STR_19(CODE[3]), STR_2(CODE[3]), 
		 -> STR_20(CODE[3]), STR_21(CODE[3]), STR_22(CODE[3]), STR_23(CODE[3]), 
		 -> STR_24(CODE[9]), STR_25(CODE[9]), STR_26(CODE[13]), STR_27(CODE[10]), 
		 -> STR_28(CODE[16]), STR_29(CODE[17]), STR_3(CODE[3]), STR_30(CODE[10]), 
		 -> STR_31(CODE[15]), STR_32(CODE[13]), STR_33(CODE[12]), STR_34(CODE[8]), 
		 -> STR_35(CODE[11]), STR_36(CODE[13]), STR_37(CODE[17]), STR_38(CODE[17]), 
		 -> STR_39(CODE[14]), STR_4(CODE[3]), STR_40(CODE[9]), STR_41(CODE[17]), 
		 -> STR_42(CODE[10]), STR_43(CODE[15]), STR_46(CODE[10]), STR_47(CODE[10]), 
		 -> STR_48(CODE[13]), STR_49(CODE[3]), STR_5(CODE[3]), STR_50(CODE[3]), 
		 -> STR_51(CODE[3]), STR_52(CODE[3]), STR_53(CODE[3]), STR_54(CODE[3]), 
		 -> STR_55(CODE[3]), STR_56(CODE[3]), STR_57(CODE[3]), STR_58(CODE[9]), 
		 -> STR_59(CODE[9]), STR_6(CODE[3]), STR_60(CODE[13]), STR_61(CODE[10]), 
		 -> STR_62(CODE[16]), STR_63(CODE[3]), STR_64(CODE[3]), STR_65(CODE[3]), 
		 -> STR_66(CODE[3]), STR_67(CODE[3]), STR_68(CODE[3]), STR_69(CODE[3]), 
		 -> STR_7(CODE[3]), STR_70(CODE[3]), STR_71(CODE[3]), STR_72(CODE[9]), 
		 -> STR_73(CODE[9]), STR_74(CODE[13]), STR_75(CODE[10]), STR_76(CODE[16]), 
		 -> STR_77(CODE[3]), STR_78(CODE[3]), STR_79(CODE[3]), STR_8(CODE[3]), 
		 -> STR_80(CODE[3]), STR_81(CODE[3]), STR_82(CODE[3]), STR_83(CODE[3]), 
		 -> STR_84(CODE[3]), STR_85(CODE[3]), STR_86(CODE[9]), STR_87(CODE[9]), 
		 -> STR_88(CODE[13]), STR_89(CODE[10]), STR_9(CODE[3]), STR_90(CODE[16]), 
		 -> STR_91(CODE[3]), STR_92(CODE[3]), STR_93(CODE[3]), STR_94(CODE[3]), 
		 -> STR_95(CODE[3]), STR_96(CODE[3]), STR_97(CODE[3]), STR_98(CODE[3]), 
		 -> STR_99(CODE[3]), time(BANK0[9]), view_log@log_event(COMRAM[16]), 

    event	PTR unsigned char [9] size(2) Largest target is 3
		 -> STR_1(CODE[3]), STR_105(CODE[3]), STR_106(CODE[3]), STR_107(CODE[3]), 
		 -> STR_108(CODE[3]), STR_109(CODE[3]), STR_110(CODE[3]), STR_111(CODE[3]), 
		 -> STR_112(CODE[3]), STR_113(CODE[3]), STR_119(CODE[3]), STR_120(CODE[3]), 
		 -> STR_121(CODE[3]), STR_122(CODE[3]), STR_123(CODE[3]), STR_124(CODE[3]), 
		 -> STR_125(CODE[3]), STR_126(CODE[3]), STR_127(CODE[3]), STR_133(CODE[3]), 
		 -> STR_134(CODE[3]), STR_135(CODE[3]), STR_136(CODE[3]), STR_137(CODE[3]), 
		 -> STR_138(CODE[3]), STR_139(CODE[3]), STR_140(CODE[3]), STR_141(CODE[3]), 
		 -> STR_147(CODE[3]), STR_148(CODE[3]), STR_149(CODE[3]), STR_15(CODE[3]), 
		 -> STR_150(CODE[3]), STR_151(CODE[3]), STR_152(CODE[3]), STR_153(CODE[3]), 
		 -> STR_154(CODE[3]), STR_155(CODE[3]), STR_16(CODE[3]), STR_161(CODE[3]), 
		 -> STR_162(CODE[3]), STR_163(CODE[3]), STR_164(CODE[3]), STR_165(CODE[3]), 
		 -> STR_166(CODE[3]), STR_167(CODE[3]), STR_168(CODE[3]), STR_169(CODE[3]), 
		 -> STR_17(CODE[3]), STR_18(CODE[3]), STR_19(CODE[3]), STR_2(CODE[3]), 
		 -> STR_20(CODE[3]), STR_21(CODE[3]), STR_22(CODE[3]), STR_23(CODE[3]), 
		 -> STR_3(CODE[3]), STR_4(CODE[3]), STR_49(CODE[3]), STR_5(CODE[3]), 
		 -> STR_50(CODE[3]), STR_51(CODE[3]), STR_52(CODE[3]), STR_53(CODE[3]), 
		 -> STR_54(CODE[3]), STR_55(CODE[3]), STR_56(CODE[3]), STR_57(CODE[3]), 
		 -> STR_6(CODE[3]), STR_63(CODE[3]), STR_64(CODE[3]), STR_65(CODE[3]), 
		 -> STR_66(CODE[3]), STR_67(CODE[3]), STR_68(CODE[3]), STR_69(CODE[3]), 
		 -> STR_7(CODE[3]), STR_70(CODE[3]), STR_71(CODE[3]), STR_77(CODE[3]), 
		 -> STR_78(CODE[3]), STR_79(CODE[3]), STR_8(CODE[3]), STR_80(CODE[3]), 
		 -> STR_81(CODE[3]), STR_82(CODE[3]), STR_83(CODE[3]), STR_84(CODE[3]), 
		 -> STR_85(CODE[3]), STR_9(CODE[3]), STR_91(CODE[3]), STR_92(CODE[3]), 
		 -> STR_93(CODE[3]), STR_94(CODE[3]), STR_95(CODE[3]), STR_96(CODE[3]), 
		 -> STR_97(CODE[3]), STR_98(CODE[3]), STR_99(CODE[3]), 

    key	PTR unsigned char  size(2) Largest target is 1535
		 -> RAM(DATA[1535]), NULL(NULL[0]), 

    menu	PTR unsigned char [5] size(2) Largest target is 16
		 -> STR_10(CODE[9]), STR_100(CODE[9]), STR_101(CODE[9]), STR_102(CODE[13]), 
		 -> STR_103(CODE[10]), STR_104(CODE[16]), STR_11(CODE[9]), STR_114(CODE[9]), 
		 -> STR_115(CODE[9]), STR_116(CODE[13]), STR_117(CODE[10]), STR_118(CODE[16]), 
		 -> STR_12(CODE[13]), STR_128(CODE[9]), STR_129(CODE[9]), STR_13(CODE[10]), 
		 -> STR_130(CODE[13]), STR_131(CODE[10]), STR_132(CODE[16]), STR_14(CODE[16]), 
		 -> STR_142(CODE[9]), STR_143(CODE[9]), STR_144(CODE[13]), STR_145(CODE[10]), 
		 -> STR_146(CODE[16]), STR_156(CODE[9]), STR_157(CODE[9]), STR_158(CODE[13]), 
		 -> STR_159(CODE[10]), STR_160(CODE[16]), STR_170(CODE[9]), STR_171(CODE[9]), 
		 -> STR_172(CODE[13]), STR_173(CODE[10]), STR_174(CODE[16]), STR_24(CODE[9]), 
		 -> STR_25(CODE[9]), STR_26(CODE[13]), STR_27(CODE[10]), STR_28(CODE[16]), 
		 -> STR_58(CODE[9]), STR_59(CODE[9]), STR_60(CODE[13]), STR_61(CODE[10]), 
		 -> STR_62(CODE[16]), STR_72(CODE[9]), STR_73(CODE[9]), STR_74(CODE[13]), 
		 -> STR_75(CODE[10]), STR_76(CODE[16]), STR_86(CODE[9]), STR_87(CODE[9]), 
		 -> STR_88(CODE[13]), STR_89(CODE[10]), STR_90(CODE[16]), 

    puts@s	PTR const unsigned char  size(2) Largest target is 170
		 -> downlode_log@downlode_events(BANK1[170]), STR_44(CODE[19]), STR_45(CODE[3]), 

    read_from_EEPROM@j	PTR unsigned char  size(2) Largest target is 1535
		 -> RAM(DATA[1535]), 

    sp__strcpy	PTR unsigned char  size(1) Largest target is 5
		 -> orig_pass(BANK0[5]), 

    strcmp@l	PTR const unsigned char  size(1) Largest target is 5
		 -> change_password@read_pass(BANK0[5]), orig_pass(BANK0[5]), 

    strcmp@r	PTR const unsigned char  size(1) Largest target is 5
		 -> change_password@confirm_pass(BANK0[5]), usr_pass(BANK0[5]), 

    strcpy@d	PTR unsigned char  size(1) Largest target is 5
		 -> orig_pass(BANK0[5]), 

    strcpy@dest	PTR unsigned char  size(1) Largest target is 5
		 -> orig_pass(BANK0[5]), 

    strcpy@src	PTR const unsigned char  size(1) Largest target is 5
		 -> change_password@read_pass(BANK0[5]), 


Critical Paths under _main in COMRAM

    _main->_dash_board
    _view_log->_read_from_EEPROM
    _set_time->_clcd_putch
    _main_menu->_clcd_putch
    _login_screen->_clcd_putch
    _init_config->_write_external_eeprom
    _init_ds1307->_read_ds1307
    _init_ds1307->_write_ds1307
    _write_ds1307->_i2c_write
    _init_clcd->_clcd_write
    _fetch_password->_read_external_eeprom
    _downlode_log->_read_from_EEPROM
    _read_from_EEPROM->___wmul
    _read_external_eeprom->_i2c_write
    _puts->___wmul
    _dash_board->_store_in_eeprom
    _store_in_eeprom->___awmod
    ___awmod->___awdiv
    _get_time->_read_ds1307
    _read_ds1307->_i2c_write
    ___lwdiv->_read_adc
    _clear_log->_clcd_print
    _change_password->_clcd_putch
    _write_external_eeprom->_i2c_write
    _clcd_putch->___awmod
    _clcd_print->_clcd_write

Critical Paths under _isr in COMRAM

    None.

Critical Paths under _main in BANK0

    None.

Critical Paths under _isr in BANK0

    None.

Critical Paths under _main in BANK1

    _main->_downlode_log

Critical Paths under _isr in BANK1

    None.

Critical Paths under _main in BANK2

    None.

Critical Paths under _isr in BANK2

    None.

Critical Paths under _main in BANK3

    None.

Critical Paths under _isr in BANK3

    None.

Critical Paths under _main in BANK4

    None.

Critical Paths under _isr in BANK4

    None.

Critical Paths under _main in BANK5

    None.

Critical Paths under _isr in BANK5

    None.

Call Graph Tables:

 ---------------------------------------------------------------------------------
 (Depth) Function   	        Calls       Base Space   Used Autos Params    Refs
 ---------------------------------------------------------------------------------
 (0) _main                                                 2     2      0  134789
                                             35 COMRAM     2     2      0
                    _change_password
                          _clear_log
                         _dash_board
                       _downlode_log
                        _init_config
                       _login_screen
                          _main_menu
                      _read_switches
                           _set_time
                           _view_log
 ---------------------------------------------------------------------------------
 (1) _view_log                                            18    18      0   14597
                                             10 COMRAM    18    18      0
                             ___wmul
                         _clcd_print
                         _clcd_write
                   _read_from_EEPROM
 ---------------------------------------------------------------------------------
 (1) _set_time                                             2     2      0   19326
                                             16 COMRAM     2     2      0
                            ___lwdiv
                            ___lwmod
                         _clcd_print
                         _clcd_putch
                         _clcd_write
                       _write_ds1307
 ---------------------------------------------------------------------------------
 (1) _read_switches                                        2     2      0      75
                                              0 COMRAM     2     2      0
                           _scan_key
 ---------------------------------------------------------------------------------
 (2) _scan_key                                             0     0      0       0
 ---------------------------------------------------------------------------------
 (1) _main_menu                                            2     2      0   15215
                                             16 COMRAM     2     2      0
                         _clcd_print
                         _clcd_putch
                         _clcd_write
 ---------------------------------------------------------------------------------
 (1) _login_screen                                         2     2      0   17381
                                             16 COMRAM     2     2      0
                            ___awdiv
                            ___awmod
                         _clcd_print
                         _clcd_putch
                         _clcd_write
                     _fetch_password
                             _strcmp
 ---------------------------------------------------------------------------------
 (1) _init_config                                          0     0      0    4453
                     _fetch_password
                           _init_adc
                          _init_clcd
                        _init_ds1307
                           _init_i2c
                 _init_matrix_keypad
                        _init_timer0
              _write_external_eeprom
 ---------------------------------------------------------------------------------
 (2) _init_timer0                                          0     0      0       0
 ---------------------------------------------------------------------------------
 (2) _init_matrix_keypad                                   0     0      0       0
 ---------------------------------------------------------------------------------
 (2) _init_i2c                                             0     0      0       0
 ---------------------------------------------------------------------------------
 (2) _init_ds1307                                          1     1      0     734
                                              3 COMRAM     1     1      0
                        _read_ds1307
                       _write_ds1307
 ---------------------------------------------------------------------------------
 (2) _write_ds1307                                         2     1      1     598
                                              1 COMRAM     2     1      1
                          _i2c_start
                           _i2c_stop
                          _i2c_write
 ---------------------------------------------------------------------------------
 (2) _init_clcd                                            1     1      0    2856
                                              2 COMRAM     1     1      0
                         _clcd_write
 ---------------------------------------------------------------------------------
 (2) _init_adc                                             0     0      0       0
 ---------------------------------------------------------------------------------
 (2) _fetch_password                                       0     0      0      90
               _read_external_eeprom
 ---------------------------------------------------------------------------------
 (1) _downlode_log                                       176   176      0   15403
                                             10 COMRAM     2     2      0
                                              0 BANK1    174   174      0
                             ___wmul
                         _clcd_print
                         _clcd_write
                          _init_uart
                               _puts
                   _read_from_EEPROM
 ---------------------------------------------------------------------------------
 (2) _read_from_EEPROM                                     4     2      2     506
                                              6 COMRAM     4     2      2
                             ___wmul (ARG)
               _read_external_eeprom
 ---------------------------------------------------------------------------------
 (3) _read_external_eeprom                                 4     4      0      90
                                              1 COMRAM     4     4      0
                           _i2c_read
                      _i2c_rep_start
                          _i2c_start
                           _i2c_stop
                          _i2c_write
 ---------------------------------------------------------------------------------
 (2) _puts                                                 2     0      2     295
                                              6 COMRAM     2     0      2
                             ___wmul (ARG)
                              _putch
 ---------------------------------------------------------------------------------
 (3) _putch                                                1     1      0      22
                                              0 COMRAM     1     1      0
 ---------------------------------------------------------------------------------
 (2) _init_uart                                            0     0      0       0
 ---------------------------------------------------------------------------------
 (2) ___wmul                                               6     2      4    4103
                                              0 COMRAM     6     2      4
 ---------------------------------------------------------------------------------
 (1) _dash_board                                           4     4      0   22131
                                             31 COMRAM     4     4      0
                            ___lwdiv
                            ___lwmod
                         _clcd_print
                         _clcd_putch
                         _clcd_write
                           _get_time
                           _read_adc
                    _store_in_eeprom
 ---------------------------------------------------------------------------------
 (2) _store_in_eeprom                                     17    15      2    3112
                                             14 COMRAM    17    15      2
                            ___awdiv
                            ___awmod
              _write_external_eeprom
 ---------------------------------------------------------------------------------
 (2) ___awmod                                              6     2      4     904
                                              8 COMRAM     6     2      4
                            ___awdiv (ARG)
 ---------------------------------------------------------------------------------
 (2) ___awdiv                                              8     4      4     756
                                              0 COMRAM     8     4      4
 ---------------------------------------------------------------------------------
 (2) _read_adc                                             6     4      2      22
                                              0 COMRAM     6     4      2
 ---------------------------------------------------------------------------------
 (2) _get_time                                             0     0      0      67
                        _read_ds1307
 ---------------------------------------------------------------------------------
 (3) _read_ds1307                                          2     2      0      67
                                              1 COMRAM     2     2      0
                           _i2c_read
                      _i2c_rep_start
                          _i2c_start
                           _i2c_stop
                          _i2c_write
 ---------------------------------------------------------------------------------
 (4) _i2c_rep_start                                        0     0      0       0
                           _i2c_idle
 ---------------------------------------------------------------------------------
 (4) _i2c_read                                             0     0      0       0
                         _i2c_no_ack
                        _i2c_rx_mode
 ---------------------------------------------------------------------------------
 (5) _i2c_rx_mode                                          0     0      0       0
                           _i2c_idle
 ---------------------------------------------------------------------------------
 (5) _i2c_no_ack                                           0     0      0       0
 ---------------------------------------------------------------------------------
 (2) ___lwmod                                              5     1      4    1679
                                              0 COMRAM     5     1      4
 ---------------------------------------------------------------------------------
 (2) ___lwdiv                                              7     3      4    1834
                                              6 COMRAM     7     3      4
                           _read_adc (ARG)
 ---------------------------------------------------------------------------------
 (1) _clear_log                                            2     2      0    9579
                                              5 COMRAM     2     2      0
                         _clcd_print
                         _clcd_write
 ---------------------------------------------------------------------------------
 (1) _change_password                                      2     2      0   16629
                                             16 COMRAM     2     2      0
                         _clcd_print
                         _clcd_putch
                         _clcd_write
                             _strcmp
                             _strcpy
              _write_external_eeprom
 ---------------------------------------------------------------------------------
 (2) _write_external_eeprom                                4     3      1     773
                                              1 COMRAM     4     3      1
                          _i2c_start
                           _i2c_stop
                          _i2c_write
 ---------------------------------------------------------------------------------
 (4) _i2c_write                                            1     1      0      22
                                              0 COMRAM     1     1      0
                           _i2c_idle
 ---------------------------------------------------------------------------------
 (4) _i2c_stop                                             0     0      0       0
                           _i2c_idle
 ---------------------------------------------------------------------------------
 (4) _i2c_start                                            0     0      0       0
                           _i2c_idle
 ---------------------------------------------------------------------------------
 (5) _i2c_idle                                             0     0      0       0
 ---------------------------------------------------------------------------------
 (2) _strcpy                                               3     1      2     225
                                              0 COMRAM     3     1      2
 ---------------------------------------------------------------------------------
 (2) _strcmp                                               4     2      2     416
                                              0 COMRAM     4     2      2
 ---------------------------------------------------------------------------------
 (2) _clcd_putch                                           2     1      1    5636
                                             14 COMRAM     2     1      1
                            ___awdiv (ARG)
                            ___awmod (ARG)
                            ___lwdiv (ARG)
                            ___lwmod (ARG)
                         _clcd_write
 ---------------------------------------------------------------------------------
 (2) _clcd_print                                           3     0      3    6723
                                              2 COMRAM     3     0      3
                         _clcd_write
 ---------------------------------------------------------------------------------
 (2) _clcd_write                                           2     1      1    2856
                                              0 COMRAM     2     1      1
 ---------------------------------------------------------------------------------
 Estimated maximum stack depth 5
 ---------------------------------------------------------------------------------
 (Depth) Function   	        Calls       Base Space   Used Autos Params    Refs
 ---------------------------------------------------------------------------------
 (7) _isr                                                  0     0      0       0
 ---------------------------------------------------------------------------------
 Estimated maximum stack depth 7
 ---------------------------------------------------------------------------------

 Call Graph Graphs:

 _main (ROOT)
   _change_password
     _clcd_print
       _clcd_write
     _clcd_putch
       ___awdiv (ARG)
       ___awmod (ARG)
         ___awdiv (ARG)
       ___lwdiv (ARG)
         _read_adc (ARG)
       ___lwmod (ARG)
       _clcd_write (ARG)
     _clcd_write
     _strcmp
     _strcpy
     _write_external_eeprom
       _i2c_start
         _i2c_idle
       _i2c_stop
         _i2c_idle
       _i2c_write
         _i2c_idle
   _clear_log
     _clcd_print
     _clcd_write
   _dash_board
     ___lwdiv
     ___lwmod
     _clcd_print
     _clcd_putch
     _clcd_write
     _get_time
       _read_ds1307
         _i2c_read
           _i2c_no_ack
           _i2c_rx_mode
             _i2c_idle
         _i2c_rep_start
           _i2c_idle
         _i2c_start
         _i2c_stop
         _i2c_write
     _read_adc
     _store_in_eeprom
       ___awdiv
       ___awmod
       _write_external_eeprom
   _downlode_log
     ___wmul
     _clcd_print
     _clcd_write
     _init_uart
     _puts
       ___wmul (ARG)
       _putch (ARG)
     _read_from_EEPROM
       ___wmul (ARG)
       _read_external_eeprom (ARG)
         _i2c_read
         _i2c_rep_start
         _i2c_start
         _i2c_stop
         _i2c_write
   _init_config
     _fetch_password
       _read_external_eeprom
     _init_adc
     _init_clcd
       _clcd_write
     _init_ds1307
       _read_ds1307
       _write_ds1307
         _i2c_start
         _i2c_stop
         _i2c_write
     _init_i2c
     _init_matrix_keypad
     _init_timer0
     _write_external_eeprom
   _login_screen
     ___awdiv
     ___awmod
     _clcd_print
     _clcd_putch
     _clcd_write
     _fetch_password
     _strcmp
   _main_menu
     _clcd_print
     _clcd_putch
     _clcd_write
   _read_switches
     _scan_key
   _set_time
     ___lwdiv
     ___lwmod
     _clcd_print
     _clcd_putch
     _clcd_write
     _write_ds1307
   _view_log
     ___wmul
     _clcd_print
     _clcd_write
     _read_from_EEPROM

 _isr (ROOT)

 Address spaces:
Name               Size   Autos  Total    Cost      Usage
BIGRAM             5FF      0       0      27        0.0%
BITBIGSFRll        281      0       0      25        0.0%
EEDATA             100      0       0       0        0.0%
BITBANK5           100      0       0      14        0.0%
BANK5              100      0       0      15        0.0%
BITBANK4           100      0       0      12        0.0%
BANK4              100      0       0      13        0.0%
BITBANK3           100      0       0      10        0.0%
BANK3              100      0       0      11        0.0%
BITBANK2           100      0       0       8        0.0%
BANK2              100      0       0       9        0.0%
BITBANK1           100      0       0       6        0.0%
BANK1              100     AE      B9       7       72.3%
BITBANK0            A0      0       0       4        0.0%
BANK0               A0      0      78       5       75.0%
BITCOMRAM           5E      0       0       0        0.0%
COMRAM              5E     25      5D       1       98.9%
BITBIGSFRlhhhhh     19      0       0      17        0.0%
BITBIGSFRlhhlhh     10      0       0      19        0.0%
BITBIGSFRlhl         F      0       0      24        0.0%
BITBIGSFRh           D      0       0      16        0.0%
BITBIGSFRlhhhhl      B      0       0      18        0.0%
BITBIGSFRlhhlhh      9      0       0      21        0.0%
BITBIGSFRlhhll       7      0       0      23        0.0%
BITBIGSFRlhhlhl      2      0       0      22        0.0%
BITBIGSFRlhhlhh      1      0       0      20        0.0%
BIGSFR               0      0       0     200        0.0%
BITSFR_3             0      0       0     200        0.0%
SFR_3                0      0       0     200        0.0%
BITSFR_2             0      0       0     200        0.0%
SFR_2                0      0       0     200        0.0%
BITSFR_1             0      0       0     200        0.0%
SFR_1                0      0       0     200        0.0%
BITSFR               0      0       0     200        0.0%
SFR                  0      0       0     200        0.0%
STACK                0      0       0       2        0.0%
NULL                 0      0       0       0        0.0%
ABS                  0      0     18E      26        0.0%
DATA                 0      0     18E       3        0.0%
CODE                 0      0       0       0        0.0%


Microchip Technology PIC18 Macro Assembler V2.46 build 20240104201356 
Symbol Table                                                                                   Thu May 16 12:03:41 2024

                            _i 0024          _write_external_eeprom 262A                 clcd_print@addr 0036  
               clcd_print@data 0034                             l71 251C                             _GO 7E11  
                 ___awdiv@sign 0037                             _hr 002C            ___wmul@multiplicand 0034  
           _init_matrix_keypad 281E                            l201 26CC                            l221 0FAE  
                          l223 125C                            l251 13DE                            l315 05DA  
                          l319 031E                            l248 15BA                            l521 2602  
                          l257 1530                            l601 1C52                            l329 0454  
                          l361 1852                            l178 1AAC                            l442 20CE  
                          l451 27B4                            l188 2152                            l524 2628  
                          l604 1C80                            l438 269E                            l198 1DC0  
                          l374 25E8                            l518 2782                            l606 1C94  
                          l439 26A2                            l287 0A34                            l607 1CBC  
                          l448 2316                            l384 0E5C                            l608 1CA8  
                          l801 2852                            l388 248A                            l804 2810  
                          l581 22AA                            l590 1CBE                            l575 2824  
                          l591 1C10                            l592 1BE8                            l905 24D6  
                          l594 1BFC                            l659 279C                            l852 2764  
                          l773 27CA                            l597 1C2A                            l589 1BD4  
                          l598 1C66                            l855 26F6                            l599 1C3E  
                          _CKE 7E3E                            l776 27F4                            l792 282C  
                          l960 27E0                            l849 2562                            l778 2802  
                          l786 2844                            l954 27F2                            l779 2804  
                          l795 281C                            l789 283C                            l957 27CE  
                          l798 2834                            l966 23D8                            l969 2746  
                          l899 2668                            _GIE 7F97                            _RB1 7C09  
                          _RC0 7C10                            _RB2 7C0A                            _RC1 7C11  
                          _RB3 7C0B                            _RC2 7C12                            _RB4 7C0C  
                          _RB5 7C0D                            _RB6 7C0E                            _RB7 7C0F  
                          _RD7 7C1F                            u400 1C38                            u401 1C34  
                          u410 1C4C                            u411 1C48                            u420 1C60  
     login_screen@pass_complet 00CC                            u421 1C5C                            u430 1C7A  
                          u350 1BCE                            u431 1C76                            u351 1BCA  
                          u440 1C8E                            u360 1BE2                            _PEN 7E2A  
                          u441 1C8A                            u361 1BDE                            u450 1CA2  
                          u370 1BF6                            u530 224C                            u451 1C9E  
                          u371 1BF2                            u531 2248                            u460 1CB6  
                          u380 1C0A                            u540 2264                            u461 1CB2  
                          u381 1C06                            u541 2260                            u390 1C24  
                          u550 227A                            u391 1C20                            u551 2276  
                          u560 228A                            u561 2286                            u570 22A4  
                          u571 22A0                            _SEN 7E28                            _PSA 7EAB  
                          _SMP 7E3F                            _key 0028                            _min 002E  
                          _sec 0030                            _isr 0008                 clcd_putch@addr 0040  
               clcd_putch@data 0041                   ___awmod@sign 003F                            wreg 0FE8  
       read_switches@detection 0032            ?_init_matrix_keypad 0032                           l1200 1F76  
                         l1213 2026                           l2110 1CB6                           l2104 1CA2  
                         l2200 228A                           l2114 1CBC                           l2210 22A8  
                         l3100 2806                           l2060 1BF6                           l3110 2636  
                         l3102 280E                           l2070 1C24                           l2054 1BE2  
                         l2046 1BBA                           l2206 2294                           l3120 266C  
                         l3112 263C                           l3200 1EEC                           l2048 1BCE  
                         l2208 22A4                           l3130 2688                           l3122 267E  
                         l3114 2642                           l3106 262C                           l3210 1F24  
                         l3202 1EF4                           l2082 1C4C                           l2066 1C0A  
                         l4010 0316                           l4002 02CA                           l3132 268A  
                         l3124 2682                           l3116 2646                           l3108 2630  
                         l1460 21BE                           l3140 26D0                           l3220 1F50  
                         l3212 1F2A                           l3204 1F06                           l4100 0DD8  
                         l3300 20C6                           l2092 1C7A                           l2076 1C38  
                         l4020 0376                           l4004 02DC                           l3134 268C  
                         l3126 2684                           l3118 264E                           l1470 2372  
                         l3150 26F0                           l3142 26D4                           l3214 1F40  
                         l3206 1F0E                           l3222 1F56                           l3230 1F78  
                         l4110 0E18                           l4102 0DDE                           l3310 2544  
                         l3302 251E                           l4030 03A0                           l4022 0378  
                         l4006 02F2                           l4014 0326                           l3136 268E  
                         l3128 2686                           l3400 2400                           l4200 07EC  
                         l3080 2830                           l3144 26DA                           l3320 2600  
                         l3224 1F66                           l3216 1F48                           l3208 1F16  
                         l3240 1FA4                           l3232 1F7C                           l3160 249E  
                         l4120 0E36                           l4112 0E1A                           l4104 0DF4  
                         l3312 254E                           l3304 2526                           l2088 1C60  
                         l2192 2254                           l2184 223C                           l4040 03FC  
                         l4032 03B6                           l4024 0382                           l4016 033A  
                         l4008 030E                           l3138 2690                           l3330 22E2  
                         l3402 2416                           l3090 2838                           l4210 0822  
                         l4202 07F8                           l4130 2458                           l3082 284E  
                         l3146 26E0                           l3322 2610                           l3226 1F6E  
                         l3218 1F4A                           l3250 1FDC                           l3242 1FAC  
                         l3234 1F8A                           l3162 24A2                           l3154 248E  
                         l3410 25AA                           l4122 0E4E                           l4106 0E0C  
                         l3314 2556                           l3306 2532                           l2098 1C8E  
                         l2194 2264                           l2186 224C                           l4042 0416  
                         l4034 03C8                           l4018 0354                           l1467 21C6  
                         l3332 22E6                           l3076 27F4                           l3084 283E  
                         l4220 0870                           l4212 083E                           l4204 0804  
                         l4140 05DC                           l4132 2460                           l3092 2826  
                         l3148 26E4                           l3340 210E                           l3260 2016  
                         l3252 1FF2                           l3244 1FBE                           l3236 1F92  
                         l3164 24AE                           l3156 2492                           l3420 25CC  
                         l4108 0E16                           l3316 26A4                           l3180 2760  
                         l3172 274A                           l3308 253A                           l1900 27B6  
                         l3500 2518                           l2196 226A                           l4060 04DC  
                         l4044 041E                           l4036 03E2                           l4052 045C  
                         l4028 038E                           l4300 1AAE                           l1477 237A  
                         l3326 22AC                           l1654 2720                           l3406 26F8  
                         l3086 2840                           l4230 08CA                           l4214 0854  
                         l4222 0886                           l4150 063A                           l4142 05F2  
                         l4134 2468                           l3078 282E                           l3094 2828  
                         l3350 214E                           l3342 2122                           l3334 20D0  
                         l3318 25EC                           l3190 1EC6                           l3262 201E  
                         l3254 1FFA                           l3246 1FC6                           l3238 1F96  
                         l3510 18A8                           l3502 1854                           l3422 27E2  
                         l3182 27CE                           l3430 2380                           l3166 24BA  
                         l3158 2498                           l4118 0E26                           l3270 2032  
                         l3174 274E                           l1910 27C8                           l1902 27BA  
                         l2198 227A                           l4070 0570                           l4062 04EE  
                         l4054 046E                           l4046 0432                           l4038 03EA  
                         l4310 1B08                           l4302 1AB2                           l3328 22BA  
                         l1648 2436                           l3408 26FC                           l3088 2836  
                         l3096 2814                           l4240 091E                           l4224 089C  
                         l4216 0860                           l4208 080C                           l4160 0690  
                         l4152 0644                           l4144 0606                           l4136 2480  
                         l4128 2438                           l3344 2126                           l3336 20E8  
                         l3192 1ECE                           l3256 2000                           l3248 1FCE  
                         l3360 1CD4                           l3512 18BC                           l3520 18F8  
                         l3504 1876                           l3424 27EC                           l3184 27DC  
                         l3432 23A4                           l3168 24D4                           l3416 25B2  
                         l4080 0A58                           l3280 2068                           l3272 2034  
                         l3176 2754                           l1904 27C2                           l3600 0F28  
                         l4072 0582                           l4064 0500                           l4056 0480  
                         l4048 044C                           l4320 1B3A                           l4312 1B0C  
                         l4304 1ACE                           l3098 2818                           l4250 0966  
                         l4242 0928                           l4226 08B2                           l4218 086C  
                         l4234 08D2                           l4170 0718                           l4162 06BA  
                         l4146 061C                           l4154 0654                           l3450 217E  
                         l3442 2154                           l3346 2130                           l3338 20F6  
                         l3194 1ED2                           l3186 1EB4                           l3258 2006  
                         l3370 1CFE                           l3362 1CD8                           l3354 1CC0  
                         l3530 1952                           l3522 190C                           l3514 18D8  
                         l3506 1884                           l3426 27F0                           l3434 23A8  
                         l3418 25C8                           l4090 0D8C                           l4082 0A66  
                         l3290 2092                           l3282 2070                           l3274 2044  
                         l3266 2028                           l3178 275A                           l1906 27C4  
                         l3610 0F60                           l3602 0F30                           l4074 05C6  
                         l4066 0544                           l4058 04C4                           l4330 1B7E  
                         l4322 1B4E                           l4314 1B1E                           l4306 1AE4  
                         l4260 09AC                           l4252 0970                           l4244 0946  
                         l4228 08BE                           l4172 072A                           l4236 08F2  
                         l4164 06D0                           l4156 0668                           l4148 0630  
                         l3460 21B2                           l3452 218C                           l3444 215C  
                         l3348 2138                           l3196 1EE0                           l3188 1EB8  
                         l3372 1D28                           l3364 1CDC                           l3356 1CCC  
                         l3540 1986                           l3524 1920                           l3532 195A  
                         l3516 18E0                           l3508 1896                           l3436 2722  
                         l3428 237C                           l4092 0D8E                           l4084 0D6C  
                         l4076 0A36                           l3292 209C                           l3284 207A  
                         l3276 204E                           l3268 202C                           l1908 27C6  
                         l3700 1148                           l3604 0F44                           l3612 0F6E  
                         l4068 055C                           l4332 1B82                           l4324 1B52  
                         l4316 1B22                           l4308 1AF6                           l4270 09E8  
                         l4262 09B6                           l4254 097A                           l4246 0950  
                         l4238 0908                           l4190 07AC                           l4174 073A  
                         l4166 06E4                           l4182 0756                           l4158 067C  
                         l3462 21B8                           l3454 2192                           l3446 216E  
                         l3470 233A                           l3198 1EE8                           l3390 1DB8  
                         l3382 1D64                           l3374 1D42                           l3366 1CE0  
                         l3358 1CD0                           l3542 199A                           l3534 196E  
                         l3526 193C                           l3518 18F0                           l3438 273E  
                         l4094 0D9A                           l4086 0D72                           l4078 0A48  
                         l3294 20A4                           l3286 2080                           l3278 205E  
                         l3710 1182                           l3702 1152                           l3630 0FC6  
                         l3614 0F82                           l3606 0F50                           l3622 0F9E  
                         l4334 1B96                           l4326 1B66                           l4318 1B36  
                         l3392 27A0                           l4280 09FE                           l4264 09C8  
                         l4256 0984                           l4248 095C                           l4192 07B8  
                         l4184 076E                           l4176 0742                           l4168 070E  
                         l3456 21A8                           l3448 2176                           l3472 2348  
                         l3464 2318                           l3384 1D78                           l3376 1D5C  
                         l3368 1CE4                           l3552 19C0                           l3544 19AE  
                         l3536 1976                           l3528 1942                           l4096 0DA8  
                         l4088 0D88                           l3296 20AE                           l3288 208A  
                         l3480 24D8                           l3720 122A                           l3712 1192  
                         l3704 115A                           l3640 0FF0                           l3632 0FD0  
                         l3616 0F8E                           l3608 0F5C                           l3624 0FB2  
                         l3800 1456                           l4336 1B9A                           l4328 1B6A  
                         l3394 23DA                           l4282 0A0E                           l4266 09D8  
                         l4258 0994                           l4186 078A                           l4178 074A  
                         l3458 21B0                           l3474 235E                           l3466 232A  
                         l3386 1D7C                           l3570 1A46                           l3554 19C6  
                         l3546 19B8                           l3562 19EC                           l3538 197A  
                         l4098 0DCC                           l1882 2766                           l3298 20BC  
                         l1890 278C                           l3490 24EC                           l3482 24DC  
                         l3722 123C                           l3714 11B2                           l3706 1176  
                         l3650 1028                           l3642 0FFE                           l3634 0FD8  
                         l3626 0FBC                           l3802 1466                           l4338 1BAE  
                         l3396 23DE                           l4284 0A26                           l4268 09E0  
                         l4188 07A0                           l4196 07C0                           l3476 2366  
                         l3468 2332                           l3388 1D98                           l3580 1AA4  
                         l3572 1A66                           l3564 1A08                           l3556 19D8  
                         l1884 281E                           l1892 2794                           l3492 24F0  
                         l3484 24E0                           l3724 1246                           l3716 11E6  
                         l3708 1178                           l3660 106C                           l3652 102C  
                         l3636 0FE0                           l3628 0FC4                           l3644 1002  
                         l3820 14FE                           l3804 1478                           l3812 1494  
                         l3740 125E                           l3900 177E                           l3398 23E2  
                         l4278 09F4                           l4198 07D6                           l3478 236C  
                         l3574 1A7A                           l3566 1A1E                           l3558 19E0  
                         l1886 2822                           l1894 2796                           l3494 24FA  
                         l3486 24E4                           l3726 1248                           l3718 121A  
                         l3670 1090                           l3662 1074                           l3654 104A  
                         l3646 1016                           l3638 0FE8                           l3590 0E9C  
                         l3582 0E5E                           l3822 151A                           l3814 14AC  
                         l3830 1546                           l3806 1480                           l3750 12D0  
                         l3742 1272                           l3910 17CA                           l3902 1788  
                         l3576 1A86                           l3568 1A26                           l1896 2798  
                         l1888 2784                           l3496 2504                           l3488 24E8  
                         l3728 1250                           l3672 1098                           l3664 1076  
                         l3656 1054                           l3648 1018                           l3592 0EC4  
                         l3584 0E60                           l3840 1582                           l3824 152C  
                         l3816 14C8                           l3808 1488                           l3760 130E  
                         l3752 12DC                           l3744 129A                           l3920 17DE  
                         l3912 17CE                           l3904 17A8                           l3578 1A90  
                         l1898 279A                           l3498 250E                           l3690 1104  
                         l3674 10A0                           l3666 1080                           l3658 1064  
                         l3594 0ED4                           l3586 0E70                           l3842 159E  
                         l3826 1534                           l3818 14E4                           l3834 1558  
                         l3762 1316                           l3754 12E4                           l3746 12A4  
                         l3770 1344                           l3930 17F2                           l3922 17E2  
                         l3914 17D2                           l3906 17B4                           l3850 15EA  
                         l3692 1114                           l3676 10A8                           l3668 1088  
                         l3684 10CE                           l3596 0EFC                           l3588 0E8C  
                         l3836 156A                           l3828 153E                           l3780 13C6  
                         l3772 135A                           l3764 131E                           l3756 12F4  
                         l3748 12B4                           l3940 1806                           l3932 17F6  
                         l3924 17E6                           l3916 17D6                           l3908 17C4  
                         l3860 1656                           l3852 160A                           l3844 15BC  
                         l3694 1120                           l3686 10EA                           l3678 10C0  
                         l3598 0F18                           l3838 1578                           l3782 13D8  
                         l3774 1376                           l3766 1336                           l3758 1306  
                         l3942 180A                           l3934 17FA                           l3926 17EA  
                         l3918 17DA                           l3870 16B4                           l3862 1670  
                         l3854 161A                           l3846 15CE                           l3696 1136  
                         l3688 10F4                           l3784 13E4                           l3776 1390  
                         l3792 1406                           l3960 0038                           l3936 17FE  
                         l3928 17EE                           l3872 16BC                           l3864 167C  
                         l3880 16D8                           l3856 162E                           l3848 15E2  
                         l3944 181C                           l3698 1140                           l3794 141A  
                         l3786 13EE                           l3778 13AC                           l3970 00EA  
                         l3962 0098                           l3954 0012                           l3946 182C  
                         l3938 1802                           l3882 16EA                           l3874 16C4  
                         l3866 1690                           l3858 1642                           l3796 1444  
                         l3788 13F6                           l3980 0174                           l3972 010A  
                         l3964 00A0                           l3956 0014                           l3948 1844  
                         l3884 1700                           l3892 173E                           l3876 16CC  
                         l3868 16AA                           l3798 144E                           l3990 02A2  
                         l3982 0188                           l3974 012A                           l3966 00C0  
                         l3958 0024                           l3894 1750                           l3886 1716  
                         l3992 02AA                           l3984 01A2                           l3976 0134  
                         l3968 00E0                           l3896 1766                           l3888 171A  
                         _ADFM 7E07                           l3994 02B2                           l3986 0290  
                         l3978 0154                           l3898 1778                           l3996 02B4  
                         l3988 029A                           ?_isr 0032                           l3998 02BE  
                         _ADON 7E10                           STR_1 2FF6                           STR_2 2FF3  
                         STR_3 2FFC                           STR_4 2FE4                           STR_5 2FE7  
                         STR_6 2FEA                           STR_7 2FED                           STR_8 2FF0  
                         STR_9 2FF9                           _BRGH 7D62                           _CREN 7D5C  
                         _T0CS 7EAD                           u2001 1CC6                           u2010 1D98  
                         u2011 1D94                           u2100 216E                           u2020 1DB8  
                         u2101 216A                           u2021 1DB4                           u2030 2400  
                         u2110 218C                           u2031 23FC                           u2111 2188  
                         u2040 2416                           u3000 0668                           u2120 21A8  
                         u2200 1920                           u2041 2412                           u3001 0664  
                         u2121 21A4                           u2201 191C                           u2050 2720  
                         u3010 067C                           u2130 232A                           u2210 193C  
                         u2051 271C                           u3011 0678                           u2131 2326  
                         u2211 1938                           u3100 07EC                           u3020 0690  
                         u2140 2348                           u2220 196E                           u2060 25E8  
                         u2300 0E8C                           u3101 07E8                           u3021 068C  
                         u2141 2344                           u2221 196A                           u2061 25E4  
                         u2301 0E88                           u3110 0822                           u3030 06BA  
                         u2150 235E                           u2230 199A                           u2070 23A0  
                         u2310 0EC4                           u3111 081E                           u3031 06B6  
                         u2151 235A                           u2231 1996                           u2311 0EC0  
                         u3120 083E                           u3040 06E4                           u2240 19AE  
                         u2160 18A8                           u2080 23C8                           u2400 123C  
                         u2320 0EFC                           u3200 1B08                           u3121 083A  
                         u3041 06E0                           u2241 19AA                           u2161 18A4  
                         u2401 1238                           u2321 0EF8                           u3201 1B04  
                         u3130 0854                           u3050 070E                           u2250 19D8  
                         u2170 18BC                           u2090 23D8                           u2330 0F18  
                         u2410 1272                           u3210 1B1E                           u3131 0850  
                         u3051 070A                           u2251 19D4                           u2171 18B8  
                         u2091 23D4                           u2331 0F14                           u2411 126E  
                         u3211 1B1A                           u3140 089C                           u3060 076E  
                         u2260 1A1E                           u2180 18D8                           u2340 0F44  
                         u2500 1444                           u2420 129A                           u3220 1B36  
                         u3141 0898                           u3061 076A                           u2261 1A1A  
                         u2181 18D4                           u2077 2396                           u2341 0F40  
                         u2501 1440                           u2421 1296                           u3221 1B32  
                         u3150 08B2                           u3070 078A                           u2270 1A7A  
                         u2190 190C                           u2350 0F82                           u2510 14AC  
                         u2430 135A                           u3230 1B4E                           u3151 08AE  
                         u3071 0786                           u2271 1A76                           u2191 1908  
                         u2087 23BE                           u2351 0F7E                           u2511 14A8  
                         u2431 1356                           u3231 1B4A                           u1800 269E  
                         u3160 0908                           u3080 07A0                           u2280 1AA4  
                         u2360 1016                           u2520 14C8                           u2440 1376  
                         u2600 162E                           u3240 1B66                           u1801 269A  
                         u3161 0904                           u3081 079C                           u2281 1AA0  
                         u2361 1012                           u2521 14C4                           u2441 1372  
                         u2601 162A                           u3241 1B62                           u3170 091E  
                         u3090 07D6                           u1810 24D4                           u2370 104A  
                         u2290 0E70                           u2530 14E4                           u2450 1390  
                         u2610 1642                           u3250 1B7E                           u3171 091A  
                         u3091 07D2                           u1811 24D0                           u2371 1046  
                         u2291 0E6C                           u2531 14E0                           u2451 138C  
                         u2611 163E                           u3251 1B7A                           u3180 0946  
                         u1900 1FA4                           u1820 27DC                           u2380 10EA  
                         u2540 14FE                           u2460 13AC                           u2700 1766  
                         u2620 1656                           u3260 1B96                           u3181 0942  
                         u1901 1FA0                           u1821 27D8                           u2381 10E6  
                         u2541 14FA                           u2461 13A8                           u2701 1762  
                         u2621 1652                           u3261 1B92                           u1830 1EC6  
                         u1910 1FBE                           u2390 1176                           u2550 151A  
                         u2470 13C6                           u2710 1778                           u2630 1670  
                         u3270 1BAE                           u3190 1ACE                           u1831 1EC2  
                         u1911 1FBA                           u3407 206A                           u2391 1172  
                         u2551 1516                           u2471 13C2                           u2711 1774  
                         u2631 166C                           u3271 1BAA                           u3191 1ACA  
                         u1760 2802                           u1840 1EE0                           u1920 1FDC  
                         u2560 152C                           u2480 13D8                           u2800 03A0  
                         u2720 0038                           u2640 1690                           u1761 27FE  
                         u1841 1EDC                           u1921 1FD8                           u3417 208C  
                         u2561 1528                           u2481 13D4                           u2801 039C  
                         u2721 0034                           u2641 168C                           u1770 2668  
                         u1850 1F06                           u1930 1FF2                           u2570 156A  
                         u2490 141A                           u2810 03B6                           u2730 0188  
                         u2650 16AA          ?_read_external_eeprom 0032                           u1771 2664  
                         u1851 1F02                           u1931 1FEE                           u3427 209E  
                         u2571 1566                           u2491 1416                           u2811 03B2  
                         u2731 0184                           u3347 1836                           u2651 16A6  
                         u1780 267C                           u1860 1F24                           u1940 2016  
                         u2900 04EE                           u2820 03C8                           u2740 01A2  
                         u2660 16EA                           u2580 15CE                           u1781 2676  
                         u1861 1F20                           u1941 2012                           u3437 20B4  
                         u3357 1328                           u2901 04EA                           u2821 03C4  
                         u2741 019E                           u2661 16E6                           u2581 15CA  
                         u1950 2610                           u1870 1F40                           u2910 0500  
                         u2830 03E2                           u2750 02DC                           u2670 1700  
                         u2590 15E2                           u1951 260C                           u1871 1F3C  
                         u3447 20C8                           u3367 10B2                           u2911 04FC  
                         u2831 03DE                           u2751 02D8                           u2671 16FC  
                         u2591 15DE                           u1960 22DE                           u1880 1F66  
                         u2920 0570                           u2840 03FC                           u2760 02F2  
                         u2680 1716                           u1881 1F62                           u3457 0DFE  
                         u3377 112A                           u2921 056C                           u2841 03F8  
                         u2761 02EE                           u2681 1712                           u1970 2306  
                         u1890 1F8A                           u2930 0582                           u2850 0416  
                         u2770 030E                           u2690 1750                           u1795 267E  
                         u1891 1F86                           u3467 0E40                           u3387 203A  
                         u2931 057E                           u2851 0412                           u2771 030A  
                         u2691 174C                           _PEIE 7F96                           u1980 2316  
                         u2940 0A48                           u2860 0432                           u2780 033A  
                         u1981 2312                           u3477 2472                           u2941 0A44  
                         u3397 2054                           u2861 042E                           u2781 0336  
                         u1990 20F6                           u2950 0D88                           u2870 044C  
                         u2790 0354                           u1967 22D4                           u3487 099E  
                         u1991 20F2                           u2951 0D84                           u2871 0448  
                         u2791 0350                           u2960 0DF4                           u2880 046E  
                         u1977 22FC                           u3497 0A18                           u2961 0DF0  
                         u2881 046A                           u2970 05F2                           u2890 0480  
                         u2971 05EE                           u2891 047C                           _RCIE 7CED  
                         u2980 061C                           _RCEN 7E2B                           u2981 0618  
                         u2990 0630                           u2991 062C                           _RBPU 7F8F  
                         _TMR0 0FD6                           _SPEN 7D5F                           _RSEN 7E29  
                         _TXIF 7CF4                           _data 01AE                           _main 1AAE  
                         _menu 0072                           _once 005D                           _time 0092  
                         fsr0h 0FEA                           fsr1h 0FE2                           indf0 0FEF  
                         fsr2h 0FDA                           fsr0l 0FE9                           indf1 0FE7  
                         indf2 0FDF                           fsr1l 0FE1                           fsr2l 0FD9  
                         btemp 005E                           _puts 237C                           prodh 0FF4  
                         prodl 0FF3                           start 000E          read_external_eeprom@i 0033  
         ??_init_matrix_keypad 0032                   ___param_bank 0000                 clcd_write@byte 0033  
                _i2c_rep_start 2826                  ??_i2c_rx_mode 0032                          ??_isr 0032  
                 ?_init_ds1307 0032                          _ADCS0 7E00                          _ADCS1 7E01  
                        _ADCS2 7E02                          ?_main 0032                   ?_read_ds1307 0032  
                        _ACKEN 7E2C                          _ACKDT 7E2D                          _BCLIF 7D0B  
                        _ACQT0 7E03                          _ACQT1 7E04                          _ACQT2 7E05  
              __end_of___awdiv 1F78                          STR_10 2FD3                          STR_11 2FCA  
                        STR_12 2F7F                          STR_13 2FB7                          STR_30 2FAD  
                        STR_14 2F1C                          STR_31 2F3B                          STR_40 2FC1  
                        STR_32 2F58                          STR_33 2F8C                          STR_41 2ED8  
                        STR_34 2FDC                          STR_42 2FA3                          STR_35 2F98  
                        STR_43 2F2C                          STR_36 2F65                          STR_44 2EC5  
              __end_of___awmod 2028                          STR_45 2ED5                          STR_37 2F0B  
                        STR_29 2EE9                          STR_46 2FA3                          STR_38 2EFA  
                        STR_47 2FB7                          STR_39 2F4A                          STR_48 2F72  
                        ?_puts 0038                ___awdiv@divisor 0034                          _PCFG0 7E08  
                        _PCFG1 7E09                          _PCFG2 7E0A                          _PCFG3 7E0B  
              __end_of___lwdiv 21C8                __end_of___lwmod 237C                   ?_init_config 0032  
                        i2l710 1EB0                ___awdiv@counter 0036                          _VCFG0 7E0C  
                        _VCFG1 7E0D                _store_in_eeprom 1CC0                          _E_P_T 0080  
                        _SPBRG 0FAF                          _PORTD 0F83                          _TRISB 0F93  
                        _TRISC 0F94                          _TRISD 0F95                          _SSPIF 7CF3  
                        _TXREG 0FAD                   ?_init_timer0 0032      write_external_eeprom@data 0033  
                        _blink 002A               ??_fetch_password 0037                          _event 0060  
                 view_log@flag 007C                          _putch 27CC                _change_password 05DC  
                        tablat 0FF5                          puts@s 0038                          ttemp5 005F  
                        ttemp6 0062                          ttemp7 0066                          status 0FD8  
                        wtemp8 005F               init_ds1307@dummy 0035                     _i2c_no_ack 284E  
              __initialization 21C8                 ?_i2c_rep_start 0032         ?_write_external_eeprom 0033  
                 __end_of_main 1BBA                   __end_of_puts 23DA               __end_of_i2c_idle 2806  
             __end_of_i2c_read 2812               __end_of_i2c_stop 283E                         ??_main 0055  
                ?_downlode_log 0032                         ??_puts 003A                  __activetblptr 0002  
          __end_of_i2c_rx_mode 2836                         _ADCON0 0FC2               read_switches@key 0033  
       ??_read_external_eeprom 0033                         _ADRESH 0FC4                         _ADRESL 0FC3  
                       STR_161 2FF6                         STR_170 2FD3                         STR_162 2FF3  
                       STR_171 2FCA                         STR_163 2FFC                         STR_172 2F7F  
                       STR_164 2FE4                         STR_173 2FB7                         STR_165 2FE7  
                       STR_174 2F1C                         STR_166 2FEA                         STR_167 2FED  
                       STR_168 2FF0                         STR_169 2FF9                         _T08BIT 7EAE  
             ___awdiv@dividend 0032                         ?_putch 0032                         i2l4340 1DC4  
                       i2l4350 1E46                         i2l4342 1DD2                         i2l4360 1EAE  
                       i2l4352 1E56                         i2l4344 1E08                         i2l4354 1E5C  
                       i2l4346 1E18                         i2l4356 1E84                         i2l4348 1E1E  
                       i2l4358 1E9E                   _write_ds1307 2748      change_password@pass_count 0016  
                       _TMR0IE 7F95                         _TMR0IF 7F92                         _TMR0ON 7EAF  
                       _SSPADD 0FC8                         _TRISC3 7CA3                         _TRISC4 7CA4  
                       _TRISC6 7CA6                         _TRISC7 7CA7                         _TRISD7 7CAF  
                       _SSPBUF 0FC9              read_from_EEPROM@i 003A              read_from_EEPROM@j 0038  
             __end_of_get_time 2154                         ___wmul 2722                      ??___awdiv 0036  
                    ??___awmod 003E        __end_of_store_in_eeprom 1DC2                      ??___lwdiv 003C  
          store_in_eeprom@data 0044                      ??___lwmod 0036               __end_of_init_i2c 27CC  
             __end_of_init_adc 2784               __end_of_read_adc 262A                         clear_0 220E  
                       clear_1 221A                         clear_2 2226               ___awdiv@quotient 0038  
              ___awmod@divisor 003C                 ??_downlode_log 003C          change_password@delay1 00C0  
        change_password@delay2 00BC                         isa$std 0001               __end_of_scan_key 1CC0  
                view_log@index 0008                ___awmod@counter 003E                         _strcmp 23DA  
                       _strcpy 26F8              ?_read_from_EEPROM 0038                   __pdataCOMRAM 0057  
      __end_of_change_password 0A36               __end_of_set_time 05DC             ??_read_from_EEPROM 003A  
                 __mediumconst 2EC4                         tblptrh 0FF7                         tblptrl 0FF6  
                       tblptru 0FF8               __end_of_view_log 1854                     __accesstop 0060  
      __end_of__initialization 222C                  ___rparam_used 0001                ??_i2c_rep_start 0032  
                ?_login_screen 0032                    ?_i2c_no_ack 0032                 __pcstackCOMRAM 0032  
                 __pidataBANK0 2564                    _i2c_rx_mode 282E           set_time@feild_change 0012  
                __end_of_putch 27E2              __end_of_i2c_start 2846              __end_of_i2c_write 281E  
                      ??_putch 0032                     __pbssBANK0 00A5                     __pbssBANK1 01AE  
       write_external_eeprom@i 0034                      ?_i2c_idle 0032                      ?_i2c_read 0032  
                    ?_i2c_stop 0032                     _dash_board 1854                 ??_login_screen 0042  
                   _clcd_print 22AC                     _clcd_putch 279E                     _clcd_write 266A  
 write_external_eeprom@address 0036                read_ds1307@data 0034                        ?___wmul 0032  
             ?_store_in_eeprom 0040                        _ACKSTAT 7E2E                        ?_strcmp 0032  
                      ?_strcpy 0032               ?_change_password 0032                        _SSPCON1 0FC6  
                    ?_get_time 0032                  _read_switches 223A                     ??_i2c_idle 0032  
                   ??_i2c_read 0032                     ??_i2c_stop 0032                      ?_init_i2c 0032  
                    ?_init_adc 0032           __end_of_downlode_log 0E5E                      ?_read_adc 0032  
            __end_of_clear_log 248C                      ?_scan_key 0032        ??_write_external_eeprom 0034  
                      __Hparam 0000                        __Lparam 0000                      ?_set_time 0032  
                      ___awdiv 1EB4                        ___awmod 1F78                      ?_view_log 0032  
                      ___lwdiv 2154                        ___lwmod 2318              __end_of_main_menu 15BC  
                      __pcinit 21C8                        __ramtop 0600                        _at_fail 0059  
                      __ptext0 1AAE                        __ptext1 15BC                        __ptext2 0012  
                      __ptext3 223A                        __ptext4 1BBA                        __ptext5 125E  
                      __ptext6 0E5E                        __ptext7 24D8                        __ptext8 2784  
                      __ptext9 281E           store_in_eeprom@speed 0040              __end_of_init_clcd 20D0  
            __end_of_init_uart 27F4               ___awmod@dividend 003A                 view_log@delay1 000C  
               view_log@delay2 000A                 ?_read_switches 0032                     ??_get_time 0035  
               __pintcode_body 1DC2           end_of_initialization 222C                  main_menu@flag 0018  
                   ??_init_i2c 0032                     ??_init_adc 0032                  __Lmediumconst 2EC4  
                   ??_read_adc 0034                        int_func 1DC2                    ?_dash_board 0032  
                   ??_scan_key 0032                    ?_clcd_print 0034                    ?_clcd_putch 0040  
                  ?_clcd_write 0032                     ??_set_time 0042                        postdec1 0FE5  
                      postdec2 0FDD                        postinc0 0FEE                        postinc1 0FE6  
                      postinc2 0FDE                     ??_view_log 003C                        strcmp@l 0032  
                      strcmp@r 0033                        strcpy@d 0034                read_adc@channel 0037  
            view_log@log_event 003E                  i2c_write@data 0032           __end_of_login_screen 125E  
       login_screen@pass_count 001E       read_external_eeprom@data 0036               store_in_eeprom@i 004F  
             store_in_eeprom@j 0022                   ??_i2c_no_ack 0032                   ?_i2c_rx_mode 0032  
               __end_of___wmul 2748                  __pidataCOMRAM 2846                     main_menu@j 001C  
               __end_of_strcmp 2438                 __end_of_strcpy 2722            start_initialization 21C8  
              ??_read_switches 0032                      _i2c_start 283E                    __end_of_isr 1EB4  
                    _i2c_write 2812             __end_of_i2c_no_ack 2854                 set_time@delay1 0010  
               set_time@delay2 000E          __end_of_i2c_rep_start 282E                       ??___wmul 0036  
                ??_init_ds1307 0035                    __pdataBANK0 0060                  ??_read_ds1307 0033  
                     ??_strcmp 0034                       ??_strcpy 0034                   _downlode_log 0A36  
                ??_init_config 0037                  ??_init_timer0 0032                    __pbssCOMRAM 0001  
                __pcstackBANK1 0100                     ?_i2c_start 0032                     ?_i2c_write 0032  
  change_password@confirm_pass 00CE                      _dashboard 0082               ___lwdiv@dividend 0038  
__end_of_write_external_eeprom 266A                      _clear_log 2438                      __pintcode 0008  
                __pmediumconst 2EC4                       ?___awdiv 0032                       ?___awmod 003A  
           read_ds1307@address 0033                       ?___lwdiv 0038                      _clock_reg 0005  
                     ?___lwmod 0032                      _main_flag 0026                      _main_menu 125E  
          __end_of_init_ds1307 2564            __end_of_read_ds1307 26F8               ___lwdiv@quotient 003C  
                    _init_clcd 2028            __end_of_init_config 251E                      _init_uart 27E2  
                ?_write_ds1307 0033            __end_of_init_timer0 279E               _read_from_EEPROM 25AA  
              dash_board@speed 0053                 ___wmul@product 0036    read_external_eeprom@address 0035  
                 ??_dash_board 0051                   ??_clcd_print 0037                   ??_clcd_putch 0041  
   __end_of_init_matrix_keypad 2826                 _fetch_password 26A4                   ??_clcd_write 0033  
                     i2u330_40 1E46                       i2u330_41 1E42                       i2u331_40 1E84  
                     i2u331_41 1E80                       i2u332_40 1E98                       i2u332_41 1E92  
                     i2u333_40 1E9A                       i2u328_40 1DD2                       i2u328_41 1DCE  
                     i2u329_40 1E08                       i2u329_41 1E04                   _login_screen 0E5E  
                   ?_clear_log 0032                      _orig_pass 009B          clcd_write@control_bit 0032  
            ___wmul@multiplier 0032                  downlode_log@i 01AC                  downlode_log@k 01AA  
                   ?_main_menu 0032             __end_of_dash_board 1AAE                    ??_i2c_start 0032  
           __end_of_clcd_print 2318                    ??_i2c_write 0032             __end_of_clcd_putch 27B6  
           __end_of_clcd_write 26A4                     ?_init_clcd 0032                     ?_init_uart 0032  
                    copy_data0 21DC                      copy_data1 21FC                 ??_write_ds1307 0034  
                     _i2c_idle 27F4                       _i2c_read 2806                       _i2c_stop 2836  
              main_menu@delay1 0001                main_menu@delay2 00C4         __end_of_fetch_password 26CE  
     change_password@read_pass 00D3                      isr@count2 00B4                      isr@count3 00B0  
                     __Hrparam 0000          store_in_eeprom@F10697 00A5                login_screen@U_S 0020  
                     __Lrparam 0000            change_password@cs_f 00CA            login_screen@attempt 0057  
 __end_of_read_external_eeprom 24D8                    _init_ds1307 251E                    _event_count 005B  
                  _read_ds1307 26CE                    _init_config 24D8            write_ds1307@address 0034  
                  _init_timer0 2784                ___lwdiv@divisor 003A                ___lwdiv@counter 003E  
                     __ptext10 27B6                       __ptext11 251E                       __ptext20 27CC  
                     __ptext12 2748                       __ptext21 27E2                       __ptext13 2028  
                     __ptext30 2826                       __ptext22 2722                       __ptext14 2766  
                     __ptext31 2806                       __ptext23 1854                       __ptext15 26A4  
                     __ptext40 2836                       __ptext32 282E                       __ptext24 1CC0  
                     __ptext16 0A36                       __ptext41 283E                       __ptext33 284E  
                     __ptext25 1F78                       __ptext17 25AA                       __ptext42 27F4  
                     __ptext34 2318                       __ptext26 1EB4                       __ptext18 248C  
                     __ptext43 26F8                       __ptext35 2154                       __ptext27 25EA  
                     __ptext19 237C                       __ptext44 23DA                       __ptext36 2438  
                     __ptext28 20D0                       __ptext45 279E                       __ptext37 05DC  
                     __ptext29 26CE                       __ptext46 22AC                       __ptext38 262A  
                     __ptext47 266A                       __ptext39 2812                       _get_time 20D0  
                   strcpy@dest 0032              ??_store_in_eeprom 0042                       _init_i2c 27B6  
                     _init_adc 2766                       _read_adc 25EA                ?_fetch_password 0032  
                     _scan_key 1BBA                    dash_board@f 007E                    dash_board@i 0051  
                  ??_clear_log 0037              ??_change_password 0042                       _set_time 0012  
                     isa$xinst 0000                       int$flags 005E                       _view_log 15BC  
                     _usr_pass 00A0                    ??_main_menu 0042                      putch@byte 0032  
               main_menu@count 001A                       isr@count 00B8                   set_time@flag 00C8  
                  ??_init_clcd 0034          __end_of_read_switches 22AC                    ??_init_uart 0032  
                     intlevel2 0000    downlode_log@downlode_events 0100               ___lwmod@dividend 0032  
                    strcpy@src 0033           __end_of_write_ds1307 2766       __end_of_read_from_EEPROM 25EA  
   change_password@pass_count2 0014                ___lwmod@divisor 0034                ___lwmod@counter 0036  
             write_ds1307@data 0033           _read_external_eeprom 248C  
